Archive member included to satisfy reference by file (symbol)

C:/Users/h274519/ON_Semiconductor/ONSemiconductor/RSL10/3.0.534/lib/ble_core/Release/libblelib.a(rwip.o)
                              ./code/ble_std.o (BLE_InitNoTL)
C:/Users/h274519/ON_Semiconductor/ONSemiconductor/RSL10/3.0.534/lib/ble_core/Release/libblelib.a(rwble.o)
                              C:/Users/h274519/ON_Semiconductor/ONSemiconductor/RSL10/3.0.534/lib/ble_core/Release/libblelib.a(rwip.o) (rwble_init)
C:/Users/h274519/ON_Semiconductor/ONSemiconductor/RSL10/3.0.534/lib/ble_core/Release/libblelib.a(rf_atlas.o)
                              C:/Users/h274519/ON_Semiconductor/ONSemiconductor/RSL10/3.0.534/lib/ble_core/Release/libblelib.a(rwip.o) (rf_init)
C:/Users/h274519/ON_Semiconductor/ONSemiconductor/RSL10/3.0.534/lib/ble_core/Release/libblelib.a(prf-prf_utils.o)
                              ./code/ble_bass.o (prf_env_get)
C:/Users/h274519/ON_Semiconductor/ONSemiconductor/RSL10/3.0.534/lib/ble_core/Release/libblelib.a(lld_evt.o)
                              C:/Users/h274519/ON_Semiconductor/ONSemiconductor/RSL10/3.0.534/lib/ble_core/Release/libblelib.a(rwip.o) (ble_max_rx_window_size)
C:/Users/h274519/ON_Semiconductor/ONSemiconductor/RSL10/3.0.534/lib/ble_core/Release/libblelib.a(lld_sleep.o)
                              C:/Users/h274519/ON_Semiconductor/ONSemiconductor/RSL10/3.0.534/lib/ble_core/Release/libblelib.a(rwip.o) (lld_sleep_params)
C:/Users/h274519/ON_Semiconductor/ONSemiconductor/RSL10/3.0.534/lib/ble_core/Release/libblelib.a(hci.o)
                              C:/Users/h274519/ON_Semiconductor/ONSemiconductor/RSL10/3.0.534/lib/ble_core/Release/libblelib.a(rwip.o) (hci_reset)
C:/Users/h274519/ON_Semiconductor/ONSemiconductor/RSL10/3.0.534/lib/ble_core/Release/libblelib.a(hci_fc.o)
                              C:/Users/h274519/ON_Semiconductor/ONSemiconductor/RSL10/3.0.534/lib/ble_core/Release/libblelib.a(hci.o) (hci_fc_init)
C:/Users/h274519/ON_Semiconductor/ONSemiconductor/RSL10/3.0.534/lib/ble_core/Release/libblelib.a(hci_msg.o)
                              C:/Users/h274519/ON_Semiconductor/ONSemiconductor/RSL10/3.0.534/lib/ble_core/Release/libblelib.a(hci.o) (hci_look_for_cmd_desc)
C:/Users/h274519/ON_Semiconductor/ONSemiconductor/RSL10/3.0.534/lib/ble_core/Release/libblelib.a(llm.o)
                              C:/Users/h274519/ON_Semiconductor/ONSemiconductor/RSL10/3.0.534/lib/ble_core/Release/libblelib.a(rwip.o) (llm_le_env)
C:/Users/h274519/ON_Semiconductor/ONSemiconductor/RSL10/3.0.534/lib/ble_core/Release/libblelib.a(llm_task.o)
                              C:/Users/h274519/ON_Semiconductor/ONSemiconductor/RSL10/3.0.534/lib/ble_core/Release/libblelib.a(llm.o) (llm_state)
C:/Users/h274519/ON_Semiconductor/ONSemiconductor/RSL10/3.0.534/lib/ble_core/Release/libblelib.a(llm_util.o)
                              C:/Users/h274519/ON_Semiconductor/ONSemiconductor/RSL10/3.0.534/lib/ble_core/Release/libblelib.a(llm.o) (llm_util_bd_addr_wl_position)
C:/Users/h274519/ON_Semiconductor/ONSemiconductor/RSL10/3.0.534/lib/ble_core/Release/libblelib.a(lld.o)
                              C:/Users/h274519/ON_Semiconductor/ONSemiconductor/RSL10/3.0.534/lib/ble_core/Release/libblelib.a(rwble.o) (lld_init)
C:/Users/h274519/ON_Semiconductor/ONSemiconductor/RSL10/3.0.534/lib/ble_core/Release/libblelib.a(lld_pdu.o)
                              C:/Users/h274519/ON_Semiconductor/ONSemiconductor/RSL10/3.0.534/lib/ble_core/Release/libblelib.a(lld_evt.o) (lld_pdu_check)
C:/Users/h274519/ON_Semiconductor/ONSemiconductor/RSL10/3.0.534/lib/ble_core/Release/libblelib.a(lld_util.o)
                              C:/Users/h274519/ON_Semiconductor/ONSemiconductor/RSL10/3.0.534/lib/ble_core/Release/libblelib.a(llm_util.o) (lld_util_set_bd_address)
C:/Users/h274519/ON_Semiconductor/ONSemiconductor/RSL10/3.0.534/lib/ble_core/Release/libblelib.a(lld_wlcoex.o)
                              C:/Users/h274519/ON_Semiconductor/ONSemiconductor/RSL10/3.0.534/lib/ble_core/Release/libblelib.a(rwip.o) (lld_wlcoex_set)
C:/Users/h274519/ON_Semiconductor/ONSemiconductor/RSL10/3.0.534/lib/ble_core/Release/libblelib.a(llc.o)
                              C:/Users/h274519/ON_Semiconductor/ONSemiconductor/RSL10/3.0.534/lib/ble_core/Release/libblelib.a(rwble.o) (llc_init)
C:/Users/h274519/ON_Semiconductor/ONSemiconductor/RSL10/3.0.534/lib/ble_core/Release/libblelib.a(llc_llcp.o)
                              C:/Users/h274519/ON_Semiconductor/ONSemiconductor/RSL10/3.0.534/lib/ble_core/Release/libblelib.a(lld_pdu.o) (llc_llcp_recv_handler)
C:/Users/h274519/ON_Semiconductor/ONSemiconductor/RSL10/3.0.534/lib/ble_core/Release/libblelib.a(llc_task.o)
                              C:/Users/h274519/ON_Semiconductor/ONSemiconductor/RSL10/3.0.534/lib/ble_core/Release/libblelib.a(llc.o) (llc_state)
C:/Users/h274519/ON_Semiconductor/ONSemiconductor/RSL10/3.0.534/lib/ble_core/Release/libblelib.a(llc_util.o)
                              C:/Users/h274519/ON_Semiconductor/ONSemiconductor/RSL10/3.0.534/lib/ble_core/Release/libblelib.a(llm.o) (llc_util_get_free_conhdl)
C:/Users/h274519/ON_Semiconductor/ONSemiconductor/RSL10/3.0.534/lib/ble_core/Release/libblelib.a(em_buf.o)
                              C:/Users/h274519/ON_Semiconductor/ONSemiconductor/RSL10/3.0.534/lib/ble_core/Release/libblelib.a(rwble.o) (em_buf_init)
C:/Users/h274519/ON_Semiconductor/ONSemiconductor/RSL10/3.0.534/lib/ble_core/Release/libblelib.a(rwble_hl.o)
                              C:/Users/h274519/ON_Semiconductor/ONSemiconductor/RSL10/3.0.534/lib/ble_core/Release/libblelib.a(rwip.o) (rwble_hl_init)
C:/Users/h274519/ON_Semiconductor/ONSemiconductor/RSL10/3.0.534/lib/ble_core/Release/libblelib.a(l2cm.o)
                              C:/Users/h274519/ON_Semiconductor/ONSemiconductor/RSL10/3.0.534/lib/ble_core/Release/libblelib.a(rwble_hl.o) (l2cm_init)
C:/Users/h274519/ON_Semiconductor/ONSemiconductor/RSL10/3.0.534/lib/ble_core/Release/libblelib.a(l2cc.o)
                              C:/Users/h274519/ON_Semiconductor/ONSemiconductor/RSL10/3.0.534/lib/ble_core/Release/libblelib.a(l2cm.o) (l2cc_create)
C:/Users/h274519/ON_Semiconductor/ONSemiconductor/RSL10/3.0.534/lib/ble_core/Release/libblelib.a(l2cc_lecb.o)
                              C:/Users/h274519/ON_Semiconductor/ONSemiconductor/RSL10/3.0.534/lib/ble_core/Release/libblelib.a(l2cc.o) (l2cc_lecb_find)
C:/Users/h274519/ON_Semiconductor/ONSemiconductor/RSL10/3.0.534/lib/ble_core/Release/libblelib.a(l2cc_pdu.o)
                              C:/Users/h274519/ON_Semiconductor/ONSemiconductor/RSL10/3.0.534/lib/ble_core/Release/libblelib.a(l2cc.o) (l2cc_lecb_pdu_pack)
C:/Users/h274519/ON_Semiconductor/ONSemiconductor/RSL10/3.0.534/lib/ble_core/Release/libblelib.a(l2cc_task.o)
                              C:/Users/h274519/ON_Semiconductor/ONSemiconductor/RSL10/3.0.534/lib/ble_core/Release/libblelib.a(l2cc_lecb.o) (l2cc_pdu_alloc)
C:/Users/h274519/ON_Semiconductor/ONSemiconductor/RSL10/3.0.534/lib/ble_core/Release/libblelib.a(gattm.o)
                              C:/Users/h274519/ON_Semiconductor/ONSemiconductor/RSL10/3.0.534/lib/ble_core/Release/libblelib.a(rwble_hl.o) (gattm_init)
C:/Users/h274519/ON_Semiconductor/ONSemiconductor/RSL10/3.0.534/lib/ble_core/Release/libblelib.a(gattm_task.o)
                              C:/Users/h274519/ON_Semiconductor/ONSemiconductor/RSL10/3.0.534/lib/ble_core/Release/libblelib.a(gattm.o) (gattm_state)
C:/Users/h274519/ON_Semiconductor/ONSemiconductor/RSL10/3.0.534/lib/ble_core/Release/libblelib.a(gattc.o)
                              C:/Users/h274519/ON_Semiconductor/ONSemiconductor/RSL10/3.0.534/lib/ble_core/Release/libblelib.a(l2cc_pdu.o) (gattc_get_mtu)
C:/Users/h274519/ON_Semiconductor/ONSemiconductor/RSL10/3.0.534/lib/ble_core/Release/libblelib.a(gattc_task.o)
                              C:/Users/h274519/ON_Semiconductor/ONSemiconductor/RSL10/3.0.534/lib/ble_core/Release/libblelib.a(gattc.o) (gattc_state)
C:/Users/h274519/ON_Semiconductor/ONSemiconductor/RSL10/3.0.534/lib/ble_core/Release/libblelib.a(atts.o)
                              C:/Users/h274519/ON_Semiconductor/ONSemiconductor/RSL10/3.0.534/lib/ble_core/Release/libblelib.a(gattc_task.o) (atts_send_error)
C:/Users/h274519/ON_Semiconductor/ONSemiconductor/RSL10/3.0.534/lib/ble_core/Release/libblelib.a(attm.o)
                              C:/Users/h274519/ON_Semiconductor/ONSemiconductor/RSL10/3.0.534/lib/ble_core/Release/libblelib.a(gattc_task.o) (attm_convert_to128)
C:/Users/h274519/ON_Semiconductor/ONSemiconductor/RSL10/3.0.534/lib/ble_core/Release/libblelib.a(attm_db.o)
                              C:/Users/h274519/ON_Semiconductor/ONSemiconductor/RSL10/3.0.534/lib/ble_core/Release/libblelib.a(attm.o) (attmdb_svc_check_hdl)
C:/Users/h274519/ON_Semiconductor/ONSemiconductor/RSL10/3.0.534/lib/ble_core/Release/libblelib.a(attc.o)
                              C:/Users/h274519/ON_Semiconductor/ONSemiconductor/RSL10/3.0.534/lib/ble_core/Release/libblelib.a(gattc_task.o) (attc_send_att_req)
C:/Users/h274519/ON_Semiconductor/ONSemiconductor/RSL10/3.0.534/lib/ble_core/Release/libblelib.a(gapm.o)
                              C:/Users/h274519/ON_Semiconductor/ONSemiconductor/RSL10/3.0.534/lib/ble_core/Release/libblelib.a(rwip.o) (gapm_env)
C:/Users/h274519/ON_Semiconductor/ONSemiconductor/RSL10/3.0.534/lib/ble_core/Release/libblelib.a(gapm_task.o)
                              C:/Users/h274519/ON_Semiconductor/ONSemiconductor/RSL10/3.0.534/lib/ble_core/Release/libblelib.a(gapm.o) (gapm_state)
C:/Users/h274519/ON_Semiconductor/ONSemiconductor/RSL10/3.0.534/lib/ble_core/Release/libblelib.a(gapm_util.o)
                              C:/Users/h274519/ON_Semiconductor/ONSemiconductor/RSL10/3.0.534/lib/ble_core/Release/libblelib.a(gapm_task.o) (gapm_adv_op_sanity)
C:/Users/h274519/ON_Semiconductor/ONSemiconductor/RSL10/3.0.534/lib/ble_core/Release/libblelib.a(gapc.o)
                              C:/Users/h274519/ON_Semiconductor/ONSemiconductor/RSL10/3.0.534/lib/ble_core/Release/libblelib.a(gapm.o) (gapc_con_create)
C:/Users/h274519/ON_Semiconductor/ONSemiconductor/RSL10/3.0.534/lib/ble_core/Release/libblelib.a(gapc_task.o)
                              C:/Users/h274519/ON_Semiconductor/ONSemiconductor/RSL10/3.0.534/lib/ble_core/Release/libblelib.a(gapc.o) (gapc_state)
C:/Users/h274519/ON_Semiconductor/ONSemiconductor/RSL10/3.0.534/lib/ble_core/Release/libblelib.a(ecc_p256.o)
                              C:/Users/h274519/ON_Semiconductor/ONSemiconductor/RSL10/3.0.534/lib/ble_core/Release/libblelib.a(rwip.o) (ecc_init)
C:/Users/h274519/ON_Semiconductor/ONSemiconductor/RSL10/3.0.534/lib/ble_core/Release/libblelib.a(ea.o)
                              C:/Users/h274519/ON_Semiconductor/ONSemiconductor/RSL10/3.0.534/lib/ble_core/Release/libblelib.a(rwip.o) (ea_init)
C:/Users/h274519/ON_Semiconductor/ONSemiconductor/RSL10/3.0.534/lib/ble_core/Release/libblelib.a(llm_hci.o)
                              C:/Users/h274519/ON_Semiconductor/ONSemiconductor/RSL10/3.0.534/lib/ble_core/Release/libblelib.a(llm_task.o) (hci_command_handler)
C:/Users/h274519/ON_Semiconductor/ONSemiconductor/RSL10/3.0.534/lib/ble_core/Release/libblelib.a(llc_ch_asses.o)
                              C:/Users/h274519/ON_Semiconductor/ONSemiconductor/RSL10/3.0.534/lib/ble_core/Release/libblelib.a(llc_util.o) (llc_ch_assess_local)
C:/Users/h274519/ON_Semiconductor/ONSemiconductor/RSL10/3.0.534/lib/ble_core/Release/libblelib.a(llc_hci.o)
                              C:/Users/h274519/ON_Semiconductor/ONSemiconductor/RSL10/3.0.534/lib/ble_core/Release/libblelib.a(llc_task.o) (llc_hci_command_handler)
C:/Users/h274519/ON_Semiconductor/ONSemiconductor/RSL10/3.0.534/lib/ble_core/Release/libblelib.a(l2cc_sig.o)
                              C:/Users/h274519/ON_Semiconductor/ONSemiconductor/RSL10/3.0.534/lib/ble_core/Release/libblelib.a(l2cc_task.o) (l2cc_sig_send_cmd_reject)
C:/Users/h274519/ON_Semiconductor/ONSemiconductor/RSL10/3.0.534/lib/ble_core/Release/libblelib.a(smpm_api.o)
                              C:/Users/h274519/ON_Semiconductor/ONSemiconductor/RSL10/3.0.534/lib/ble_core/Release/libblelib.a(gapm_task.o) (smpm_gen_rand_addr)
C:/Users/h274519/ON_Semiconductor/ONSemiconductor/RSL10/3.0.534/lib/ble_core/Release/libblelib.a(smpc.o)
                              C:/Users/h274519/ON_Semiconductor/ONSemiconductor/RSL10/3.0.534/lib/ble_core/Release/libblelib.a(gapc.o) (smpc_clear_timeout_timer)
C:/Users/h274519/ON_Semiconductor/ONSemiconductor/RSL10/3.0.534/lib/ble_core/Release/libblelib.a(smpc_api.o)
                              C:/Users/h274519/ON_Semiconductor/ONSemiconductor/RSL10/3.0.534/lib/ble_core/Release/libblelib.a(gapc_task.o) (smpc_pairing_start)
C:/Users/h274519/ON_Semiconductor/ONSemiconductor/RSL10/3.0.534/lib/ble_core/Release/libblelib.a(smpc_crypto.o)
                              C:/Users/h274519/ON_Semiconductor/ONSemiconductor/RSL10/3.0.534/lib/ble_core/Release/libblelib.a(smpc_api.o) (smpc_f4_complete)
C:/Users/h274519/ON_Semiconductor/ONSemiconductor/RSL10/3.0.534/lib/ble_core/Release/libblelib.a(smpc_util.o)
                              C:/Users/h274519/ON_Semiconductor/ONSemiconductor/RSL10/3.0.534/lib/ble_core/Release/libblelib.a(smpc.o) (smpc_check_param)
C:/Users/h274519/ON_Semiconductor/ONSemiconductor/RSL10/3.0.534/lib/ble_core/Release/libblelib.a(gapm_hci.o)
                              C:/Users/h274519/ON_Semiconductor/ONSemiconductor/RSL10/3.0.534/lib/ble_core/Release/libblelib.a(gapm_task.o) (gapm_hci_handler)
C:/Users/h274519/ON_Semiconductor/ONSemiconductor/RSL10/3.0.534/lib/ble_core/Release/libblelib.a(gapc_hci.o)
                              C:/Users/h274519/ON_Semiconductor/ONSemiconductor/RSL10/3.0.534/lib/ble_core/Release/libblelib.a(gapc_task.o) (gapc_hci_handler)
C:/Users/h274519/ON_Semiconductor/ONSemiconductor/RSL10/3.0.534/lib/ble_core/Release/libblelib.a(gapc_sig.o)
                              C:/Users/h274519/ON_Semiconductor/ONSemiconductor/RSL10/3.0.534/lib/ble_core/Release/libblelib.a(gapc_task.o) (gapc_sig_send_param_resp)
C:/Users/h274519/ON_Semiconductor/ONSemiconductor/RSL10/3.0.534/lib/ble_core/Release/libkelib.a(ke.o)
                              C:/Users/h274519/ON_Semiconductor/ONSemiconductor/RSL10/3.0.534/lib/ble_core/Release/libblelib.a(rwip.o) (ke_flush)
C:/Users/h274519/ON_Semiconductor/ONSemiconductor/RSL10/3.0.534/lib/ble_core/Release/libkelib.a(ke_event.o)
                              C:/Users/h274519/ON_Semiconductor/ONSemiconductor/RSL10/3.0.534/lib/ble_core/Release/libkelib.a(ke.o) (ke_event_init)
C:/Users/h274519/ON_Semiconductor/ONSemiconductor/RSL10/3.0.534/lib/ble_core/Release/libkelib.a(ke_mem.o)
                              C:/Users/h274519/ON_Semiconductor/ONSemiconductor/RSL10/3.0.534/lib/ble_core/Release/libblelib.a(gattc_task.o) (ke_check_malloc)
C:/Users/h274519/ON_Semiconductor/ONSemiconductor/RSL10/3.0.534/lib/ble_core/Release/libkelib.a(ke_msg.o)
                              ./code/ble_bass.o (ke_msg_alloc)
C:/Users/h274519/ON_Semiconductor/ONSemiconductor/RSL10/3.0.534/lib/ble_core/Release/libkelib.a(ke_task.o)
                              C:/Users/h274519/ON_Semiconductor/ONSemiconductor/RSL10/3.0.534/lib/ble_core/Release/libkelib.a(ke.o) (ke_task_init)
C:/Users/h274519/ON_Semiconductor/ONSemiconductor/RSL10/3.0.534/lib/ble_core/Release/libkelib.a(ke_timer.o)
                              C:/Users/h274519/ON_Semiconductor/ONSemiconductor/RSL10/3.0.534/lib/ble_core/Release/libkelib.a(ke.o) (ke_timer_init)
C:/Users/h274519/ON_Semiconductor/ONSemiconductor/RSL10/3.0.534/lib/ble_core/Release/libkelib.a(rst_grosstime.o)
                              C:/Users/h274519/ON_Semiconductor/ONSemiconductor/RSL10/3.0.534/lib/ble_core/Release/libblelib.a(gapm_task.o) (platform_reset)
C:/Users/h274519/ON_Semiconductor/ONSemiconductor/RSL10/3.0.534/lib/ble_core/Release/libkelib.a(rwip2.o)
                              ./code/ble_std.o (Kernel_Init)
C:/Users/h274519/ON_Semiconductor/ONSemiconductor/RSL10/3.0.534/lib/ble_core/Release/libkelib.a(co_list.o)
                              C:/Users/h274519/ON_Semiconductor/ONSemiconductor/RSL10/3.0.534/lib/ble_core/Release/libblelib.a(lld_evt.o) (co_list_init)
C:/Users/h274519/ON_Semiconductor/ONSemiconductor/RSL10/3.0.534/lib/ble_core/Release/libkelib.a(co_utils.o)
                              C:/Users/h274519/ON_Semiconductor/ONSemiconductor/RSL10/3.0.534/lib/ble_core/Release/libblelib.a(llm.o) (co_bdaddr_compare)
C:/Users/h274519/ON_Semiconductor/ONSemiconductor/RSL10/3.0.534/lib/ble_core/Release/libkelib.a(ke_queue.o)
                              C:/Users/h274519/ON_Semiconductor/ONSemiconductor/RSL10/3.0.534/lib/ble_core/Release/libkelib.a(ke_task.o) (ke_queue_extract)
C:/Users/h274519/ON_Semiconductor/ONSemiconductor/RSL10/3.0.534/lib/ble_profiles/Release/libbass.a(bass.o)
                              C:/Users/h274519/ON_Semiconductor/ONSemiconductor/RSL10/3.0.534/lib/ble_core/Release/libblelib.a(prf-prf_utils.o) (bass_prf_itf_get)
C:/Users/h274519/ON_Semiconductor/ONSemiconductor/RSL10/3.0.534/lib/ble_profiles/Release/libbass.a(bass_task.o)
                              C:/Users/h274519/ON_Semiconductor/ONSemiconductor/RSL10/3.0.534/lib/ble_profiles/Release/libbass.a(bass.o) (bass_default_handler)
C:/Users/h274519/ON_Semiconductor/ONSemiconductor/RSL10/3.0.534/lib/Release/libsyslib.a(rsl10_protocol.o)
                              C:/Users/h274519/ON_Semiconductor/ONSemiconductor/RSL10/3.0.534/lib/ble_core/Release/libblelib.a(llm.o) (Device_Param_Read)
C:/Users/h274519/ON_Semiconductor/ONSemiconductor/RSL10/3.0.534/lib/Release/libsyslib.a(rsl10_sys_dma.o)
                              ./code/uart.o (Sys_DMA_ChannelConfig)
C:/Users/h274519/ON_Semiconductor/ONSemiconductor/RSL10/3.0.534/lib/Release/libsyslib.a(rsl10_sys_power_modes.o)
                              C:/Users/h274519/ON_Semiconductor/ONSemiconductor/RSL10/3.0.534/lib/ble_core/Release/libblelib.a(lld_sleep.o) (Sys_PowerModes_Sleep)
C:/Users/h274519/ON_Semiconductor/ONSemiconductor/RSL10/3.0.534/lib/Release/libsyslib.a(rsl10_sys_rffe.o)
                              ./code/app_init.o (Sys_RFFE_SetTXPower)
C:/Users/h274519/ON_Semiconductor/ONSemiconductor/RSL10/3.0.534/lib/Release/libsyslib.a(rsl10_sys_uart.o)
                              ./code/uart.o (Sys_UART_Enable)
C:/Users/h274519/ON_Semiconductor/ONSemiconductor/RSL10/3.0.534/lib/Release/libsyslib.a(rsl10_sys_power.o)
                              C:/Users/h274519/ON_Semiconductor/ONSemiconductor/RSL10/3.0.534/lib/Release/libsyslib.a(rsl10_sys_rffe.o) (Sys_Power_VDDRFCalibratedConfig)
C:/Users/h274519/ON_Semiconductor/ONSemiconductor/RSL10/3.0.534/lib/Release/libcmsis.a(startup_rsl10.o)
                              C:/Users/h274519/ON_Semiconductor/ONSemiconductor/RSL10/3.0.534/lib/Release/libsyslib.a(rsl10_sys_power_modes.o) (ISR_Vector_Table)
C:/Users/h274519/ON_Semiconductor/ONSemiconductor/RSL10/3.0.534/lib/Release/libcmsis.a(start.o)
                              C:/Users/h274519/ON_Semiconductor/ONSemiconductor/RSL10/3.0.534/lib/Release/libcmsis.a(startup_rsl10.o) (_start)
C:/Users/h274519/ON_Semiconductor/ONSemiconductor/RSL10/3.0.534/lib/Release/libcmsis.a(system_rsl10.o)
                              C:/Users/h274519/ON_Semiconductor/ONSemiconductor/RSL10/3.0.534/lib/Release/libcmsis.a(startup_rsl10.o) (SystemInit)
C:/Users/h274519/ON_Semiconductor/ONSemiconductor/RSL10/3.0.534/lib/Release/libcmsis.a(sbrk.o)
                              C:/Users/h274519/ON_Semiconductor/ONSemiconductor/RSL10/3.0.534/lib/Release/libcmsis.a(start.o) (_sbrk)
C:\Users\h274519\ON_Semiconductor\ONSemiconductor\RSL10\3.0.534\lib\ble_profiles\Release\libDISS.a(diss.o)
                              C:/Users/h274519/ON_Semiconductor/ONSemiconductor/RSL10/3.0.534/lib/ble_core/Release/libblelib.a(prf-prf_utils.o) (diss_prf_itf_get)
C:\Users\h274519\ON_Semiconductor\ONSemiconductor\RSL10\3.0.534\lib\ble_profiles\Release\libDISS.a(diss_task.o)
                              C:\Users\h274519\ON_Semiconductor\ONSemiconductor\RSL10\3.0.534\lib\ble_profiles\Release\libDISS.a(diss.o) (diss_default_handler)
c:/program files (x86)/on semiconductor/ide/arm_tools/bin/../lib/gcc/arm-none-eabi/6.3.1/thumb/v7-m\libgcc.a(_arm_addsubdf3.o)
                              C:/Users/h274519/ON_Semiconductor/ONSemiconductor/RSL10/3.0.534/lib/ble_core/Release/libblelib.a(rf_atlas.o) (__aeabi_dsub)
c:/program files (x86)/on semiconductor/ide/arm_tools/bin/../lib/gcc/arm-none-eabi/6.3.1/thumb/v7-m\libgcc.a(_arm_muldivdf3.o)
                              C:/Users/h274519/ON_Semiconductor/ONSemiconductor/RSL10/3.0.534/lib/ble_core/Release/libblelib.a(rf_atlas.o) (__aeabi_dmul)
c:/program files (x86)/on semiconductor/ide/arm_tools/bin/../lib/gcc/arm-none-eabi/6.3.1/thumb/v7-m\libgcc.a(_arm_fixdfsi.o)
                              C:/Users/h274519/ON_Semiconductor/ONSemiconductor/RSL10/3.0.534/lib/Release/libsyslib.a(rsl10_sys_rffe.o) (__aeabi_d2iz)
c:/program files (x86)/on semiconductor/ide/arm_tools/bin/../lib/gcc/arm-none-eabi/6.3.1/thumb/v7-m\libgcc.a(_arm_fixunsdfsi.o)
                              C:/Users/h274519/ON_Semiconductor/ONSemiconductor/RSL10/3.0.534/lib/ble_core/Release/libblelib.a(rwip.o) (__aeabi_d2uiz)
c:/program files (x86)/on semiconductor/ide/arm_tools/bin/../lib/gcc/arm-none-eabi/6.3.1/thumb/v7-m\libgcc.a(_arm_truncdfsf2.o)
                              C:/Users/h274519/ON_Semiconductor/ONSemiconductor/RSL10/3.0.534/lib/ble_core/Release/libblelib.a(rf_atlas.o) (__aeabi_d2f)
c:/program files (x86)/on semiconductor/ide/arm_tools/bin/../lib/gcc/arm-none-eabi/6.3.1/thumb/v7-m\libgcc.a(_arm_muldivsf3.o)
                              C:/Users/h274519/ON_Semiconductor/ONSemiconductor/RSL10/3.0.534/lib/ble_core/Release/libblelib.a(rwip.o) (__aeabi_fmul)
c:/program files (x86)/on semiconductor/ide/arm_tools/bin/../lib/gcc/arm-none-eabi/6.3.1/thumb/v7-m\libgcc.a(_arm_fixsfsi.o)
                              C:/Users/h274519/ON_Semiconductor/ONSemiconductor/RSL10/3.0.534/lib/ble_core/Release/libblelib.a(rf_atlas.o) (__aeabi_f2iz)
c:/program files (x86)/on semiconductor/ide/arm_tools/bin/../lib/gcc/arm-none-eabi/6.3.1/thumb/v7-m\libgcc.a(_aeabi_uldivmod.o)
                              C:/Users/h274519/ON_Semiconductor/ONSemiconductor/RSL10/3.0.534/lib/ble_core/Release/libblelib.a(rwip.o) (__aeabi_uldivmod)
c:/program files (x86)/on semiconductor/ide/arm_tools/bin/../lib/gcc/arm-none-eabi/6.3.1/thumb/v7-m\libgcc.a(_udivmoddi4.o)
                              c:/program files (x86)/on semiconductor/ide/arm_tools/bin/../lib/gcc/arm-none-eabi/6.3.1/thumb/v7-m\libgcc.a(_aeabi_uldivmod.o) (__udivmoddi4)
c:/program files (x86)/on semiconductor/ide/arm_tools/bin/../lib/gcc/arm-none-eabi/6.3.1/thumb/v7-m\libgcc.a(_dvmd_tls.o)
                              c:/program files (x86)/on semiconductor/ide/arm_tools/bin/../lib/gcc/arm-none-eabi/6.3.1/thumb/v7-m\libgcc.a(_aeabi_uldivmod.o) (__aeabi_ldiv0)
c:/program files (x86)/on semiconductor/ide/arm_tools/bin/../lib/gcc/arm-none-eabi/6.3.1/../../../../arm-none-eabi/lib/thumb/v7-m\libg_nano.a(lib_a-errno.o)
                              C:/Users/h274519/ON_Semiconductor/ONSemiconductor/RSL10/3.0.534/lib/Release/libcmsis.a(sbrk.o) (__errno)
c:/program files (x86)/on semiconductor/ide/arm_tools/bin/../lib/gcc/arm-none-eabi/6.3.1/../../../../arm-none-eabi/lib/thumb/v7-m\libg_nano.a(lib_a-impure.o)
                              c:/program files (x86)/on semiconductor/ide/arm_tools/bin/../lib/gcc/arm-none-eabi/6.3.1/../../../../arm-none-eabi/lib/thumb/v7-m\libg_nano.a(lib_a-errno.o) (_impure_ptr)
c:/program files (x86)/on semiconductor/ide/arm_tools/bin/../lib/gcc/arm-none-eabi/6.3.1/../../../../arm-none-eabi/lib/thumb/v7-m\libg_nano.a(lib_a-malloc.o)
                              ./code/ble_std.o (malloc)
c:/program files (x86)/on semiconductor/ide/arm_tools/bin/../lib/gcc/arm-none-eabi/6.3.1/../../../../arm-none-eabi/lib/thumb/v7-m\libg_nano.a(lib_a-memcmp.o)
                              C:/Users/h274519/ON_Semiconductor/ONSemiconductor/RSL10/3.0.534/lib/ble_core/Release/libblelib.a(llm.o) (memcmp)
c:/program files (x86)/on semiconductor/ide/arm_tools/bin/../lib/gcc/arm-none-eabi/6.3.1/../../../../arm-none-eabi/lib/thumb/v7-m\libg_nano.a(lib_a-memcpy-stub.o)
                              ./code/ble_custom.o (memcpy)
c:/program files (x86)/on semiconductor/ide/arm_tools/bin/../lib/gcc/arm-none-eabi/6.3.1/../../../../arm-none-eabi/lib/thumb/v7-m\libg_nano.a(lib_a-memset.o)
                              ./code/app_init.o (memset)
c:/program files (x86)/on semiconductor/ide/arm_tools/bin/../lib/gcc/arm-none-eabi/6.3.1/../../../../arm-none-eabi/lib/thumb/v7-m\libg_nano.a(lib_a-nano-freer.o)
                              c:/program files (x86)/on semiconductor/ide/arm_tools/bin/../lib/gcc/arm-none-eabi/6.3.1/../../../../arm-none-eabi/lib/thumb/v7-m\libg_nano.a(lib_a-malloc.o) (_free_r)
c:/program files (x86)/on semiconductor/ide/arm_tools/bin/../lib/gcc/arm-none-eabi/6.3.1/../../../../arm-none-eabi/lib/thumb/v7-m\libg_nano.a(lib_a-nano-mallocr.o)
                              c:/program files (x86)/on semiconductor/ide/arm_tools/bin/../lib/gcc/arm-none-eabi/6.3.1/../../../../arm-none-eabi/lib/thumb/v7-m\libg_nano.a(lib_a-malloc.o) (_malloc_r)
c:/program files (x86)/on semiconductor/ide/arm_tools/bin/../lib/gcc/arm-none-eabi/6.3.1/../../../../arm-none-eabi/lib/thumb/v7-m\libg_nano.a(lib_a-rand.o)
                              ./code/ble_std.o (srand)
c:/program files (x86)/on semiconductor/ide/arm_tools/bin/../lib/gcc/arm-none-eabi/6.3.1/../../../../arm-none-eabi/lib/thumb/v7-m\libg_nano.a(lib_a-sbrkr.o)
                              c:/program files (x86)/on semiconductor/ide/arm_tools/bin/../lib/gcc/arm-none-eabi/6.3.1/../../../../arm-none-eabi/lib/thumb/v7-m\libg_nano.a(lib_a-nano-mallocr.o) (_sbrk_r)
c:/program files (x86)/on semiconductor/ide/arm_tools/bin/../lib/gcc/arm-none-eabi/6.3.1/../../../../arm-none-eabi/lib/thumb/v7-m\libg_nano.a(lib_a-mlock.o)
                              c:/program files (x86)/on semiconductor/ide/arm_tools/bin/../lib/gcc/arm-none-eabi/6.3.1/../../../../arm-none-eabi/lib/thumb/v7-m\libg_nano.a(lib_a-nano-freer.o) (__malloc_lock)
c:/program files (x86)/on semiconductor/ide/arm_tools/bin/../lib/gcc/arm-none-eabi/6.3.1/../../../../arm-none-eabi/lib/thumb/v7-m\libg_nano.a(lib_a-reent.o)
                              c:/program files (x86)/on semiconductor/ide/arm_tools/bin/../lib/gcc/arm-none-eabi/6.3.1/../../../../arm-none-eabi/lib/thumb/v7-m\libg_nano.a(lib_a-sbrkr.o) (errno)

Allocating common symbols
Common symbol       size              file

gapc_state          0x8               C:/Users/h274519/ON_Semiconductor/ONSemiconductor/RSL10/3.0.534/lib/ble_core/Release/libblelib.a(gapc_task.o)
ble_instChange_rxWinSize_include
                    0x1               C:/Users/h274519/ON_Semiconductor/ONSemiconductor/RSL10/3.0.534/lib/ble_core/Release/libblelib.a(lld_evt.o)
bass_support_env    0x2               ./code/ble_bass.o
ecc_env             0x8               C:/Users/h274519/ON_Semiconductor/ONSemiconductor/RSL10/3.0.534/lib/ble_core/Release/libblelib.a(ecc_p256.o)
appm_state          0x1               ./code/app_process.o
gapm_state          0x1               C:/Users/h274519/ON_Semiconductor/ONSemiconductor/RSL10/3.0.534/lib/ble_core/Release/libblelib.a(gapm_task.o)
errno               0x4               c:/program files (x86)/on semiconductor/ide/arm_tools/bin/../lib/gcc/arm-none-eabi/6.3.1/../../../../arm-none-eabi/lib/thumb/v7-m\libg_nano.a(lib_a-reent.o)
l2cc_env            0x20              C:/Users/h274519/ON_Semiconductor/ONSemiconductor/RSL10/3.0.534/lib/ble_core/Release/libblelib.a(l2cc.o)
llc_env             0x20              C:/Users/h274519/ON_Semiconductor/ONSemiconductor/RSL10/3.0.534/lib/ble_core/Release/libblelib.a(llc.o)
stat_cnt_enable     0x1               C:/Users/h274519/ON_Semiconductor/ONSemiconductor/RSL10/3.0.534/lib/ble_core/Release/libblelib.a(lld_pdu.o)
bdaddr              0x6               ./code/ble_std.o
hci_env             0x10              C:/Users/h274519/ON_Semiconductor/ONSemiconductor/RSL10/3.0.534/lib/ble_core/Release/libblelib.a(hci.o)
rwip_heap_msg       0x100c            C:/Users/h274519/ON_Semiconductor/ONSemiconductor/RSL10/3.0.534/lib/ble_core/Release/libkelib.a(rwip2.o)
stat_cnt_value      0x2c              C:/Users/h274519/ON_Semiconductor/ONSemiconductor/RSL10/3.0.534/lib/ble_core/Release/libblelib.a(lld_pdu.o)
stat_cnt_conidx     0x1               C:/Users/h274519/ON_Semiconductor/ONSemiconductor/RSL10/3.0.534/lib/ble_core/Release/libblelib.a(lld_pdu.o)
gattm_state         0x1               C:/Users/h274519/ON_Semiconductor/ONSemiconductor/RSL10/3.0.534/lib/ble_core/Release/libblelib.a(gattm_task.o)
gNextData           0x4               ./code/uart.o
lld_sleep_params    0x2               C:/Users/h274519/ON_Semiconductor/ONSemiconductor/RSL10/3.0.534/lib/ble_core/Release/libblelib.a(lld_sleep.o)
gapc_env            0x20              C:/Users/h274519/ON_Semiconductor/ONSemiconductor/RSL10/3.0.534/lib/ble_core/Release/libblelib.a(gapc.o)
lld_evt_env         0x30              C:/Users/h274519/ON_Semiconductor/ONSemiconductor/RSL10/3.0.534/lib/ble_core/Release/libblelib.a(lld_evt.o)
bdaddr_type         0x1               ./code/ble_std.o
rwip_env            0x10              C:/Users/h274519/ON_Semiconductor/ONSemiconductor/RSL10/3.0.534/lib/ble_core/Release/libkelib.a(rwip2.o)
llm_state           0x1               C:/Users/h274519/ON_Semiconductor/ONSemiconductor/RSL10/3.0.534/lib/ble_core/Release/libblelib.a(llm_task.o)
diss_support_env    0x1               ./code/ble_diss.o
ble_adv_flags_exclude
                    0x1               C:/Users/h274519/ON_Semiconductor/ONSemiconductor/RSL10/3.0.534/lib/ble_core/Release/libblelib.a(gapm_util.o)
ke_env              0x30              C:/Users/h274519/ON_Semiconductor/ONSemiconductor/RSL10/3.0.534/lib/ble_core/Release/libkelib.a(ke.o)
cs_env              0x1fe             ./code/ble_custom.o
gattc_state         0x8               C:/Users/h274519/ON_Semiconductor/ONSemiconductor/RSL10/3.0.534/lib/ble_core/Release/libblelib.a(gattc_task.o)
rwip_heap_env       0x100c            C:/Users/h274519/ON_Semiconductor/ONSemiconductor/RSL10/3.0.534/lib/ble_core/Release/libkelib.a(rwip2.o)
l2cc_state          0x8               C:/Users/h274519/ON_Semiconductor/ONSemiconductor/RSL10/3.0.534/lib/ble_core/Release/libblelib.a(l2cc_task.o)
llm_le_env          0xcc              C:/Users/h274519/ON_Semiconductor/ONSemiconductor/RSL10/3.0.534/lib/ble_core/Release/libblelib.a(llm.o)
ble_env             0x12              ./code/ble_std.o
hci_fc_env          0xa               C:/Users/h274519/ON_Semiconductor/ONSemiconductor/RSL10/3.0.534/lib/ble_core/Release/libblelib.a(hci_fc.o)
app_env             0xc               ./code/app_init.o
ble_max_rx_window_size
                    0x4               C:/Users/h274519/ON_Semiconductor/ONSemiconductor/RSL10/3.0.534/lib/ble_core/Release/libblelib.a(lld_evt.o)
prf_env             0x390             C:/Users/h274519/ON_Semiconductor/ONSemiconductor/RSL10/3.0.534/lib/ble_core/Release/libblelib.a(prf-prf_utils.o)
l2cm_env            0xc               C:/Users/h274519/ON_Semiconductor/ONSemiconductor/RSL10/3.0.534/lib/ble_core/Release/libblelib.a(l2cm.o)
gattc_env           0x20              C:/Users/h274519/ON_Semiconductor/ONSemiconductor/RSL10/3.0.534/lib/ble_core/Release/libblelib.a(gattc.o)
rwip_rf             0x34              C:/Users/h274519/ON_Semiconductor/ONSemiconductor/RSL10/3.0.534/lib/ble_core/Release/libblelib.a(rwip.o)
em_buf_env          0x49c             C:/Users/h274519/ON_Semiconductor/ONSemiconductor/RSL10/3.0.534/lib/ble_core/Release/libblelib.a(em_buf.o)
gUARTTXData         0x4               ./code/uart.o
rwip_heap_db        0x80c             C:/Users/h274519/ON_Semiconductor/ONSemiconductor/RSL10/3.0.534/lib/ble_core/Release/libkelib.a(rwip2.o)
llc_state           0x8               C:/Users/h274519/ON_Semiconductor/ONSemiconductor/RSL10/3.0.534/lib/ble_core/Release/libblelib.a(llc_task.o)
gapm_env            0x88              C:/Users/h274519/ON_Semiconductor/ONSemiconductor/RSL10/3.0.534/lib/ble_core/Release/libblelib.a(gapm.o)
rwip_heap_non_ret   0xc               C:/Users/h274519/ON_Semiconductor/ONSemiconductor/RSL10/3.0.534/lib/ble_core/Release/libkelib.a(rwip2.o)
gattm_env           0x20              C:/Users/h274519/ON_Semiconductor/ONSemiconductor/RSL10/3.0.534/lib/ble_core/Release/libblelib.a(gattm.o)

Discarded input sections

 .text          0x00000000        0x0 ./code/app_init.o
 .data          0x00000000        0x0 ./code/app_init.o
 .bss           0x00000000        0x0 ./code/app_init.o
 .text          0x00000000        0x0 ./code/app_process.o
 .data          0x00000000        0x0 ./code/app_process.o
 .bss           0x00000000        0x0 ./code/app_process.o
 .text          0x00000000        0x0 ./code/ble_bass.o
 .data          0x00000000        0x0 ./code/ble_bass.o
 .bss           0x00000000        0x0 ./code/ble_bass.o
 .text          0x00000000        0x0 ./code/ble_custom.o
 .data          0x00000000        0x0 ./code/ble_custom.o
 .bss           0x00000000        0x0 ./code/ble_custom.o
 .text          0x00000000        0x0 ./code/ble_diss.o
 .data          0x00000000        0x0 ./code/ble_diss.o
 .bss           0x00000000        0x0 ./code/ble_diss.o
 .text          0x00000000        0x0 ./code/ble_std.o
 .data          0x00000000        0x0 ./code/ble_std.o
 .bss           0x00000000        0x0 ./code/ble_std.o
 .text          0x00000000        0x0 ./code/uart.o
 .data          0x00000000        0x0 ./code/uart.o
 .bss           0x00000000        0x0 ./code/uart.o
 .text          0x00000000        0x0 ./RTE/Device/stubprf.o
 .data          0x00000000        0x0 ./RTE/Device/stubprf.o
 .bss           0x00000000        0x0 ./RTE/Device/stubprf.o
 .text.ipss_prf_itf_get
                0x00000000        0xe ./RTE/Device/stubprf.o
 .text.ipsc_prf_itf_get
                0x00000000        0xe ./RTE/Device/stubprf.o
 .text.envs_prf_itf_get
                0x00000000        0xe ./RTE/Device/stubprf.o
 .text.envc_prf_itf_get
                0x00000000        0xe ./RTE/Device/stubprf.o
 .text.wscs_prf_itf_get
                0x00000000        0xe ./RTE/Device/stubprf.o
 .text.wscc_prf_itf_get
                0x00000000        0xe ./RTE/Device/stubprf.o
 .text.bcss_prf_itf_get
                0x00000000        0xe ./RTE/Device/stubprf.o
 .text.bcsc_prf_itf_get
                0x00000000        0xe ./RTE/Device/stubprf.o
 .text.plxs_prf_itf_get
                0x00000000        0xe ./RTE/Device/stubprf.o
 .text.plxc_prf_itf_get
                0x00000000        0xe ./RTE/Device/stubprf.o
 .text.cgms_prf_itf_get
                0x00000000        0xe ./RTE/Device/stubprf.o
 .text.cgmc_prf_itf_get
                0x00000000        0xe ./RTE/Device/stubprf.o
 .text.am0_has_prf_itf_get
                0x00000000        0xe ./RTE/Device/stubprf.o
 .text.udss_prf_itf_get
                0x00000000        0xe ./RTE/Device/stubprf.o
 .text.udsc_prf_itf_get
                0x00000000        0xe ./RTE/Device/stubprf.o
 .text.m_al_prf_itf_get
                0x00000000        0xe ./RTE/Device/stubprf.o
 .text          0x00000000        0x0 ./app.o
 .data          0x00000000        0x0 ./app.o
 .bss           0x00000000        0x0 ./app.o
 .text          0x00000000        0x0 C:/Users/h274519/ON_Semiconductor/ONSemiconductor/RSL10/3.0.534/lib/ble_core/Release/libblelib.a(rwip.o)
 .data          0x00000000        0x0 C:/Users/h274519/ON_Semiconductor/ONSemiconductor/RSL10/3.0.534/lib/ble_core/Release/libblelib.a(rwip.o)
 .bss           0x00000000        0x0 C:/Users/h274519/ON_Semiconductor/ONSemiconductor/RSL10/3.0.534/lib/ble_core/Release/libblelib.a(rwip.o)
 .text.LowPowerClock_Source_Set
                0x00000000       0x10 C:/Users/h274519/ON_Semiconductor/ONSemiconductor/RSL10/3.0.534/lib/ble_core/Release/libblelib.a(rwip.o)
 .text.rwip_check_wakeup_boundary
                0x00000000       0x28 C:/Users/h274519/ON_Semiconductor/ONSemiconductor/RSL10/3.0.534/lib/ble_core/Release/libblelib.a(rwip.o)
 .text.BLE_Init
                0x00000000       0x78 C:/Users/h274519/ON_Semiconductor/ONSemiconductor/RSL10/3.0.534/lib/ble_core/Release/libblelib.a(rwip.o)
 .text.BLE_Reset
                0x00000000       0x38 C:/Users/h274519/ON_Semiconductor/ONSemiconductor/RSL10/3.0.534/lib/ble_core/Release/libblelib.a(rwip.o)
 .text.rwip_version
                0x00000000        0x4 C:/Users/h274519/ON_Semiconductor/ONSemiconductor/RSL10/3.0.534/lib/ble_core/Release/libblelib.a(rwip.o)
 .text.BLE_Power_Mode_Enter
                0x00000000      0x138 C:/Users/h274519/ON_Semiconductor/ONSemiconductor/RSL10/3.0.534/lib/ble_core/Release/libblelib.a(rwip.o)
 .text.rwip_sleep_enable
                0x00000000        0xc C:/Users/h274519/ON_Semiconductor/ONSemiconductor/RSL10/3.0.534/lib/ble_core/Release/libblelib.a(rwip.o)
 .text.rwip_ext_wakeup_enable
                0x00000000        0xc C:/Users/h274519/ON_Semiconductor/ONSemiconductor/RSL10/3.0.534/lib/ble_core/Release/libblelib.a(rwip.o)
 .text.RTCCLK_Period_Value_Set
                0x00000000       0x38 C:/Users/h274519/ON_Semiconductor/ONSemiconductor/RSL10/3.0.534/lib/ble_core/Release/libblelib.a(rwip.o)
 .text.rwip_wlcoex_set
                0x00000000        0x4 C:/Users/h274519/ON_Semiconductor/ONSemiconductor/RSL10/3.0.534/lib/ble_core/Release/libblelib.a(rwip.o)
 .text.SecurityKeys_Read
                0x00000000       0x54 C:/Users/h274519/ON_Semiconductor/ONSemiconductor/RSL10/3.0.534/lib/ble_core/Release/libblelib.a(rwip.o)
 .text.BLE_ADV_Flags_Set
                0x00000000       0x14 C:/Users/h274519/ON_Semiconductor/ONSemiconductor/RSL10/3.0.534/lib/ble_core/Release/libblelib.a(rwip.o)
 .text.BLE_Sleep_ReductionTime_set
                0x00000000        0xc C:/Users/h274519/ON_Semiconductor/ONSemiconductor/RSL10/3.0.534/lib/ble_core/Release/libblelib.a(rwip.o)
 .text.BLE_Sleep_MaxDuration_Set
                0x00000000        0xc C:/Users/h274519/ON_Semiconductor/ONSemiconductor/RSL10/3.0.534/lib/ble_core/Release/libblelib.a(rwip.o)
 .text.BLE_Set_RxWinSize_Max
                0x00000000       0x14 C:/Users/h274519/ON_Semiconductor/ONSemiconductor/RSL10/3.0.534/lib/ble_core/Release/libblelib.a(rwip.o)
 .text          0x00000000        0x0 C:/Users/h274519/ON_Semiconductor/ONSemiconductor/RSL10/3.0.534/lib/ble_core/Release/libblelib.a(rwble.o)
 .data          0x00000000        0x0 C:/Users/h274519/ON_Semiconductor/ONSemiconductor/RSL10/3.0.534/lib/ble_core/Release/libblelib.a(rwble.o)
 .bss           0x00000000        0x0 C:/Users/h274519/ON_Semiconductor/ONSemiconductor/RSL10/3.0.534/lib/ble_core/Release/libblelib.a(rwble.o)
 .text.rwble_activity_ongoing_check
                0x00000000       0x1c C:/Users/h274519/ON_Semiconductor/ONSemiconductor/RSL10/3.0.534/lib/ble_core/Release/libblelib.a(rwble.o)
 .text.rwble_version
                0x00000000       0x30 C:/Users/h274519/ON_Semiconductor/ONSemiconductor/RSL10/3.0.534/lib/ble_core/Release/libblelib.a(rwble.o)
 .text          0x00000000        0x0 C:/Users/h274519/ON_Semiconductor/ONSemiconductor/RSL10/3.0.534/lib/ble_core/Release/libblelib.a(rf_atlas.o)
 .data          0x00000000        0x0 C:/Users/h274519/ON_Semiconductor/ONSemiconductor/RSL10/3.0.534/lib/ble_core/Release/libblelib.a(rf_atlas.o)
 .bss           0x00000000        0x0 C:/Users/h274519/ON_Semiconductor/ONSemiconductor/RSL10/3.0.534/lib/ble_core/Release/libblelib.a(rf_atlas.o)
 .text          0x00000000        0x0 C:/Users/h274519/ON_Semiconductor/ONSemiconductor/RSL10/3.0.534/lib/ble_core/Release/libblelib.a(prf-prf_utils.o)
 .data          0x00000000        0x0 C:/Users/h274519/ON_Semiconductor/ONSemiconductor/RSL10/3.0.534/lib/ble_core/Release/libblelib.a(prf-prf_utils.o)
 .bss           0x00000000        0x0 C:/Users/h274519/ON_Semiconductor/ONSemiconductor/RSL10/3.0.534/lib/ble_core/Release/libblelib.a(prf-prf_utils.o)
 .text.prf_get_id_from_task
                0x00000000       0x2c C:/Users/h274519/ON_Semiconductor/ONSemiconductor/RSL10/3.0.534/lib/ble_core/Release/libblelib.a(prf-prf_utils.o)
 .text.prf_get_task_from_id
                0x00000000       0x2c C:/Users/h274519/ON_Semiconductor/ONSemiconductor/RSL10/3.0.534/lib/ble_core/Release/libblelib.a(prf-prf_utils.o)
 .text.prf_unpack_char_pres_fmt
                0x00000000       0x22 C:/Users/h274519/ON_Semiconductor/ONSemiconductor/RSL10/3.0.534/lib/ble_core/Release/libblelib.a(prf-prf_utils.o)
 .text.prf_read_char_send
                0x00000000       0x34 C:/Users/h274519/ON_Semiconductor/ONSemiconductor/RSL10/3.0.534/lib/ble_core/Release/libblelib.a(prf-prf_utils.o)
 .text.prf_register_atthdl2gatt
                0x00000000       0x34 C:/Users/h274519/ON_Semiconductor/ONSemiconductor/RSL10/3.0.534/lib/ble_core/Release/libblelib.a(prf-prf_utils.o)
 .text.prf_unregister_atthdl2gatt
                0x00000000       0x34 C:/Users/h274519/ON_Semiconductor/ONSemiconductor/RSL10/3.0.534/lib/ble_core/Release/libblelib.a(prf-prf_utils.o)
 .text.prf_disc_svc_send
                0x00000000       0x3a C:/Users/h274519/ON_Semiconductor/ONSemiconductor/RSL10/3.0.534/lib/ble_core/Release/libblelib.a(prf-prf_utils.o)
 .text.prf_gatt_write
                0x00000000       0x58 C:/Users/h274519/ON_Semiconductor/ONSemiconductor/RSL10/3.0.534/lib/ble_core/Release/libblelib.a(prf-prf_utils.o)
 .text.prf_gatt_write_ntf_ind
                0x00000000       0x22 C:/Users/h274519/ON_Semiconductor/ONSemiconductor/RSL10/3.0.534/lib/ble_core/Release/libblelib.a(prf-prf_utils.o)
 .text.prf_check_svc_char_validity
                0x00000000       0x2e C:/Users/h274519/ON_Semiconductor/ONSemiconductor/RSL10/3.0.534/lib/ble_core/Release/libblelib.a(prf-prf_utils.o)
 .text.prf_check_svc_char_uuid128_validity
                0x00000000       0x30 C:/Users/h274519/ON_Semiconductor/ONSemiconductor/RSL10/3.0.534/lib/ble_core/Release/libblelib.a(prf-prf_utils.o)
 .text.prf_check_svc_char_desc_validity
                0x00000000       0x30 C:/Users/h274519/ON_Semiconductor/ONSemiconductor/RSL10/3.0.534/lib/ble_core/Release/libblelib.a(prf-prf_utils.o)
 .text.prf_check_svc_char_desc_uuid128_validity
                0x00000000       0x32 C:/Users/h274519/ON_Semiconductor/ONSemiconductor/RSL10/3.0.534/lib/ble_core/Release/libblelib.a(prf-prf_utils.o)
 .text.prf_extract_svc_info
                0x00000000      0x132 C:/Users/h274519/ON_Semiconductor/ONSemiconductor/RSL10/3.0.534/lib/ble_core/Release/libblelib.a(prf-prf_utils.o)
 .text.prf_extract_svc_uuid128_info
                0x00000000      0x144 C:/Users/h274519/ON_Semiconductor/ONSemiconductor/RSL10/3.0.534/lib/ble_core/Release/libblelib.a(prf-prf_utils.o)
 .text.prf_client_att_info_rsp
                0x00000000       0x5c C:/Users/h274519/ON_Semiconductor/ONSemiconductor/RSL10/3.0.534/lib/ble_core/Release/libblelib.a(prf-prf_utils.o)
 .text.prf_pack_date_time
                0x00000000       0x20 C:/Users/h274519/ON_Semiconductor/ONSemiconductor/RSL10/3.0.534/lib/ble_core/Release/libblelib.a(prf-prf_utils.o)
 .text.prf_unpack_date_time
                0x00000000       0x22 C:/Users/h274519/ON_Semiconductor/ONSemiconductor/RSL10/3.0.534/lib/ble_core/Release/libblelib.a(prf-prf_utils.o)
 .text          0x00000000        0x0 C:/Users/h274519/ON_Semiconductor/ONSemiconductor/RSL10/3.0.534/lib/ble_core/Release/libblelib.a(lld_evt.o)
 .data          0x00000000        0x0 C:/Users/h274519/ON_Semiconductor/ONSemiconductor/RSL10/3.0.534/lib/ble_core/Release/libblelib.a(lld_evt.o)
 .bss           0x00000000        0x0 C:/Users/h274519/ON_Semiconductor/ONSemiconductor/RSL10/3.0.534/lib/ble_core/Release/libblelib.a(lld_evt.o)
 .text          0x00000000        0x0 C:/Users/h274519/ON_Semiconductor/ONSemiconductor/RSL10/3.0.534/lib/ble_core/Release/libblelib.a(lld_sleep.o)
 .data          0x00000000        0x0 C:/Users/h274519/ON_Semiconductor/ONSemiconductor/RSL10/3.0.534/lib/ble_core/Release/libblelib.a(lld_sleep.o)
 .bss           0x00000000        0x0 C:/Users/h274519/ON_Semiconductor/ONSemiconductor/RSL10/3.0.534/lib/ble_core/Release/libblelib.a(lld_sleep.o)
 .text.BLE_LLD_Sleep_Params_Set
                0x00000000        0xc C:/Users/h274519/ON_Semiconductor/ONSemiconductor/RSL10/3.0.534/lib/ble_core/Release/libblelib.a(lld_sleep.o)
 .text.BLE_Is_Awake_Flag_Set
                0x00000000        0xc C:/Users/h274519/ON_Semiconductor/ONSemiconductor/RSL10/3.0.534/lib/ble_core/Release/libblelib.a(lld_sleep.o)
 .text.BLE_Is_Awake_Flag_Clear
                0x00000000        0xc C:/Users/h274519/ON_Semiconductor/ONSemiconductor/RSL10/3.0.534/lib/ble_core/Release/libblelib.a(lld_sleep.o)
 .text.BLE_Is_Awake
                0x00000000        0xc C:/Users/h274519/ON_Semiconductor/ONSemiconductor/RSL10/3.0.534/lib/ble_core/Release/libblelib.a(lld_sleep.o)
 .text.lld_power_mode_enter
                0x00000000       0x80 C:/Users/h274519/ON_Semiconductor/ONSemiconductor/RSL10/3.0.534/lib/ble_core/Release/libblelib.a(lld_sleep.o)
 .text          0x00000000        0x0 C:/Users/h274519/ON_Semiconductor/ONSemiconductor/RSL10/3.0.534/lib/ble_core/Release/libblelib.a(hci.o)
 .data          0x00000000        0x0 C:/Users/h274519/ON_Semiconductor/ONSemiconductor/RSL10/3.0.534/lib/ble_core/Release/libblelib.a(hci.o)
 .bss           0x00000000        0x0 C:/Users/h274519/ON_Semiconductor/ONSemiconductor/RSL10/3.0.534/lib/ble_core/Release/libblelib.a(hci.o)
 .text          0x00000000        0x0 C:/Users/h274519/ON_Semiconductor/ONSemiconductor/RSL10/3.0.534/lib/ble_core/Release/libblelib.a(hci_fc.o)
 .data          0x00000000        0x0 C:/Users/h274519/ON_Semiconductor/ONSemiconductor/RSL10/3.0.534/lib/ble_core/Release/libblelib.a(hci_fc.o)
 .bss           0x00000000        0x0 C:/Users/h274519/ON_Semiconductor/ONSemiconductor/RSL10/3.0.534/lib/ble_core/Release/libblelib.a(hci_fc.o)
 .text.hci_fc_acl_packet_sent
                0x00000000       0x14 C:/Users/h274519/ON_Semiconductor/ONSemiconductor/RSL10/3.0.534/lib/ble_core/Release/libblelib.a(hci_fc.o)
 .text.hci_fc_check_host_available_nb_acl_packets
                0x00000000       0x24 C:/Users/h274519/ON_Semiconductor/ONSemiconductor/RSL10/3.0.534/lib/ble_core/Release/libblelib.a(hci_fc.o)
 .text          0x00000000        0x0 C:/Users/h274519/ON_Semiconductor/ONSemiconductor/RSL10/3.0.534/lib/ble_core/Release/libblelib.a(hci_msg.o)
 .data          0x00000000        0x0 C:/Users/h274519/ON_Semiconductor/ONSemiconductor/RSL10/3.0.534/lib/ble_core/Release/libblelib.a(hci_msg.o)
 .bss           0x00000000        0x0 C:/Users/h274519/ON_Semiconductor/ONSemiconductor/RSL10/3.0.534/lib/ble_core/Release/libblelib.a(hci_msg.o)
 .text          0x00000000        0x0 C:/Users/h274519/ON_Semiconductor/ONSemiconductor/RSL10/3.0.534/lib/ble_core/Release/libblelib.a(llm.o)
 .data          0x00000000        0x0 C:/Users/h274519/ON_Semiconductor/ONSemiconductor/RSL10/3.0.534/lib/ble_core/Release/libblelib.a(llm.o)
 .bss           0x00000000        0x0 C:/Users/h274519/ON_Semiconductor/ONSemiconductor/RSL10/3.0.534/lib/ble_core/Release/libblelib.a(llm.o)
 .text          0x00000000        0x0 C:/Users/h274519/ON_Semiconductor/ONSemiconductor/RSL10/3.0.534/lib/ble_core/Release/libblelib.a(llm_task.o)
 .data          0x00000000        0x0 C:/Users/h274519/ON_Semiconductor/ONSemiconductor/RSL10/3.0.534/lib/ble_core/Release/libblelib.a(llm_task.o)
 .bss           0x00000000        0x0 C:/Users/h274519/ON_Semiconductor/ONSemiconductor/RSL10/3.0.534/lib/ble_core/Release/libblelib.a(llm_task.o)
 .text          0x00000000        0x0 C:/Users/h274519/ON_Semiconductor/ONSemiconductor/RSL10/3.0.534/lib/ble_core/Release/libblelib.a(llm_util.o)
 .data          0x00000000        0x0 C:/Users/h274519/ON_Semiconductor/ONSemiconductor/RSL10/3.0.534/lib/ble_core/Release/libblelib.a(llm_util.o)
 .bss           0x00000000        0x0 C:/Users/h274519/ON_Semiconductor/ONSemiconductor/RSL10/3.0.534/lib/ble_core/Release/libblelib.a(llm_util.o)
 .text.llm_util_set_public_addr
                0x00000000       0x10 C:/Users/h274519/ON_Semiconductor/ONSemiconductor/RSL10/3.0.534/lib/ble_core/Release/libblelib.a(llm_util.o)
 .text          0x00000000        0x0 C:/Users/h274519/ON_Semiconductor/ONSemiconductor/RSL10/3.0.534/lib/ble_core/Release/libblelib.a(lld.o)
 .data          0x00000000        0x0 C:/Users/h274519/ON_Semiconductor/ONSemiconductor/RSL10/3.0.534/lib/ble_core/Release/libblelib.a(lld.o)
 .bss           0x00000000        0x0 C:/Users/h274519/ON_Semiconductor/ONSemiconductor/RSL10/3.0.534/lib/ble_core/Release/libblelib.a(lld.o)
 .text          0x00000000        0x0 C:/Users/h274519/ON_Semiconductor/ONSemiconductor/RSL10/3.0.534/lib/ble_core/Release/libblelib.a(lld_pdu.o)
 .data          0x00000000        0x0 C:/Users/h274519/ON_Semiconductor/ONSemiconductor/RSL10/3.0.534/lib/ble_core/Release/libblelib.a(lld_pdu.o)
 .bss           0x00000000        0x0 C:/Users/h274519/ON_Semiconductor/ONSemiconductor/RSL10/3.0.534/lib/ble_core/Release/libblelib.a(lld_pdu.o)
 .text          0x00000000        0x0 C:/Users/h274519/ON_Semiconductor/ONSemiconductor/RSL10/3.0.534/lib/ble_core/Release/libblelib.a(lld_util.o)
 .data          0x00000000        0x0 C:/Users/h274519/ON_Semiconductor/ONSemiconductor/RSL10/3.0.534/lib/ble_core/Release/libblelib.a(lld_util.o)
 .bss           0x00000000        0x0 C:/Users/h274519/ON_Semiconductor/ONSemiconductor/RSL10/3.0.534/lib/ble_core/Release/libblelib.a(lld_util.o)
 .text.lld_util_get_bd_address
                0x00000000       0x28 C:/Users/h274519/ON_Semiconductor/ONSemiconductor/RSL10/3.0.534/lib/ble_core/Release/libblelib.a(lld_util.o)
 .text.lld_util_elt_programmed
                0x00000000       0x1a C:/Users/h274519/ON_Semiconductor/ONSemiconductor/RSL10/3.0.534/lib/ble_core/Release/libblelib.a(lld_util.o)
 .text.lld_util_priority_update
                0x00000000        0x8 C:/Users/h274519/ON_Semiconductor/ONSemiconductor/RSL10/3.0.534/lib/ble_core/Release/libblelib.a(lld_util.o)
 .text          0x00000000        0x0 C:/Users/h274519/ON_Semiconductor/ONSemiconductor/RSL10/3.0.534/lib/ble_core/Release/libblelib.a(lld_wlcoex.o)
 .data          0x00000000        0x0 C:/Users/h274519/ON_Semiconductor/ONSemiconductor/RSL10/3.0.534/lib/ble_core/Release/libblelib.a(lld_wlcoex.o)
 .bss           0x00000000        0x0 C:/Users/h274519/ON_Semiconductor/ONSemiconductor/RSL10/3.0.534/lib/ble_core/Release/libblelib.a(lld_wlcoex.o)
 .text          0x00000000        0x0 C:/Users/h274519/ON_Semiconductor/ONSemiconductor/RSL10/3.0.534/lib/ble_core/Release/libblelib.a(llc.o)
 .data          0x00000000        0x0 C:/Users/h274519/ON_Semiconductor/ONSemiconductor/RSL10/3.0.534/lib/ble_core/Release/libblelib.a(llc.o)
 .bss           0x00000000        0x0 C:/Users/h274519/ON_Semiconductor/ONSemiconductor/RSL10/3.0.534/lib/ble_core/Release/libblelib.a(llc.o)
 .text.llc_common_flush_occurred_send
                0x00000000       0x1c C:/Users/h274519/ON_Semiconductor/ONSemiconductor/RSL10/3.0.534/lib/ble_core/Release/libblelib.a(llc.o)
 .text          0x00000000        0x0 C:/Users/h274519/ON_Semiconductor/ONSemiconductor/RSL10/3.0.534/lib/ble_core/Release/libblelib.a(llc_llcp.o)
 .data          0x00000000        0x0 C:/Users/h274519/ON_Semiconductor/ONSemiconductor/RSL10/3.0.534/lib/ble_core/Release/libblelib.a(llc_llcp.o)
 .bss           0x00000000        0x0 C:/Users/h274519/ON_Semiconductor/ONSemiconductor/RSL10/3.0.534/lib/ble_core/Release/libblelib.a(llc_llcp.o)
 .text          0x00000000        0x0 C:/Users/h274519/ON_Semiconductor/ONSemiconductor/RSL10/3.0.534/lib/ble_core/Release/libblelib.a(llc_task.o)
 .data          0x00000000        0x0 C:/Users/h274519/ON_Semiconductor/ONSemiconductor/RSL10/3.0.534/lib/ble_core/Release/libblelib.a(llc_task.o)
 .bss           0x00000000        0x0 C:/Users/h274519/ON_Semiconductor/ONSemiconductor/RSL10/3.0.534/lib/ble_core/Release/libblelib.a(llc_task.o)
 .text          0x00000000        0x0 C:/Users/h274519/ON_Semiconductor/ONSemiconductor/RSL10/3.0.534/lib/ble_core/Release/libblelib.a(llc_util.o)
 .data          0x00000000        0x0 C:/Users/h274519/ON_Semiconductor/ONSemiconductor/RSL10/3.0.534/lib/ble_core/Release/libblelib.a(llc_util.o)
 .bss           0x00000000        0x0 C:/Users/h274519/ON_Semiconductor/ONSemiconductor/RSL10/3.0.534/lib/ble_core/Release/libblelib.a(llc_util.o)
 .text.llc_util_set_llcp_discard_enable
                0x00000000       0x20 C:/Users/h274519/ON_Semiconductor/ONSemiconductor/RSL10/3.0.534/lib/ble_core/Release/libblelib.a(llc_util.o)
 .text          0x00000000        0x0 C:/Users/h274519/ON_Semiconductor/ONSemiconductor/RSL10/3.0.534/lib/ble_core/Release/libblelib.a(em_buf.o)
 .data          0x00000000        0x0 C:/Users/h274519/ON_Semiconductor/ONSemiconductor/RSL10/3.0.534/lib/ble_core/Release/libblelib.a(em_buf.o)
 .bss           0x00000000        0x0 C:/Users/h274519/ON_Semiconductor/ONSemiconductor/RSL10/3.0.534/lib/ble_core/Release/libblelib.a(em_buf.o)
 .text.em_buf_tx_buff_addr_get
                0x00000000        0xc C:/Users/h274519/ON_Semiconductor/ONSemiconductor/RSL10/3.0.534/lib/ble_core/Release/libblelib.a(em_buf.o)
 .text          0x00000000        0x0 C:/Users/h274519/ON_Semiconductor/ONSemiconductor/RSL10/3.0.534/lib/ble_core/Release/libblelib.a(rwble_hl.o)
 .data          0x00000000        0x0 C:/Users/h274519/ON_Semiconductor/ONSemiconductor/RSL10/3.0.534/lib/ble_core/Release/libblelib.a(rwble_hl.o)
 .bss           0x00000000        0x0 C:/Users/h274519/ON_Semiconductor/ONSemiconductor/RSL10/3.0.534/lib/ble_core/Release/libblelib.a(rwble_hl.o)
 .text          0x00000000        0x0 C:/Users/h274519/ON_Semiconductor/ONSemiconductor/RSL10/3.0.534/lib/ble_core/Release/libblelib.a(l2cm.o)
 .data          0x00000000        0x0 C:/Users/h274519/ON_Semiconductor/ONSemiconductor/RSL10/3.0.534/lib/ble_core/Release/libblelib.a(l2cm.o)
 .bss           0x00000000        0x0 C:/Users/h274519/ON_Semiconductor/ONSemiconductor/RSL10/3.0.534/lib/ble_core/Release/libblelib.a(l2cm.o)
 .text          0x00000000        0x0 C:/Users/h274519/ON_Semiconductor/ONSemiconductor/RSL10/3.0.534/lib/ble_core/Release/libblelib.a(l2cc.o)
 .data          0x00000000        0x0 C:/Users/h274519/ON_Semiconductor/ONSemiconductor/RSL10/3.0.534/lib/ble_core/Release/libblelib.a(l2cc.o)
 .bss           0x00000000        0x0 C:/Users/h274519/ON_Semiconductor/ONSemiconductor/RSL10/3.0.534/lib/ble_core/Release/libblelib.a(l2cc.o)
 .text          0x00000000        0x0 C:/Users/h274519/ON_Semiconductor/ONSemiconductor/RSL10/3.0.534/lib/ble_core/Release/libblelib.a(l2cc_lecb.o)
 .data          0x00000000        0x0 C:/Users/h274519/ON_Semiconductor/ONSemiconductor/RSL10/3.0.534/lib/ble_core/Release/libblelib.a(l2cc_lecb.o)
 .bss           0x00000000        0x0 C:/Users/h274519/ON_Semiconductor/ONSemiconductor/RSL10/3.0.534/lib/ble_core/Release/libblelib.a(l2cc_lecb.o)
 .text          0x00000000        0x0 C:/Users/h274519/ON_Semiconductor/ONSemiconductor/RSL10/3.0.534/lib/ble_core/Release/libblelib.a(l2cc_pdu.o)
 .data          0x00000000        0x0 C:/Users/h274519/ON_Semiconductor/ONSemiconductor/RSL10/3.0.534/lib/ble_core/Release/libblelib.a(l2cc_pdu.o)
 .bss           0x00000000        0x0 C:/Users/h274519/ON_Semiconductor/ONSemiconductor/RSL10/3.0.534/lib/ble_core/Release/libblelib.a(l2cc_pdu.o)
 .text          0x00000000        0x0 C:/Users/h274519/ON_Semiconductor/ONSemiconductor/RSL10/3.0.534/lib/ble_core/Release/libblelib.a(l2cc_task.o)
 .data          0x00000000        0x0 C:/Users/h274519/ON_Semiconductor/ONSemiconductor/RSL10/3.0.534/lib/ble_core/Release/libblelib.a(l2cc_task.o)
 .bss           0x00000000        0x0 C:/Users/h274519/ON_Semiconductor/ONSemiconductor/RSL10/3.0.534/lib/ble_core/Release/libblelib.a(l2cc_task.o)
 .text          0x00000000        0x0 C:/Users/h274519/ON_Semiconductor/ONSemiconductor/RSL10/3.0.534/lib/ble_core/Release/libblelib.a(gattm.o)
 .data          0x00000000        0x0 C:/Users/h274519/ON_Semiconductor/ONSemiconductor/RSL10/3.0.534/lib/ble_core/Release/libblelib.a(gattm.o)
 .bss           0x00000000        0x0 C:/Users/h274519/ON_Semiconductor/ONSemiconductor/RSL10/3.0.534/lib/ble_core/Release/libblelib.a(gattm.o)
 .text          0x00000000        0x0 C:/Users/h274519/ON_Semiconductor/ONSemiconductor/RSL10/3.0.534/lib/ble_core/Release/libblelib.a(gattm_task.o)
 .data          0x00000000        0x0 C:/Users/h274519/ON_Semiconductor/ONSemiconductor/RSL10/3.0.534/lib/ble_core/Release/libblelib.a(gattm_task.o)
 .bss           0x00000000        0x0 C:/Users/h274519/ON_Semiconductor/ONSemiconductor/RSL10/3.0.534/lib/ble_core/Release/libblelib.a(gattm_task.o)
 .text          0x00000000        0x0 C:/Users/h274519/ON_Semiconductor/ONSemiconductor/RSL10/3.0.534/lib/ble_core/Release/libblelib.a(gattc.o)
 .data          0x00000000        0x0 C:/Users/h274519/ON_Semiconductor/ONSemiconductor/RSL10/3.0.534/lib/ble_core/Release/libblelib.a(gattc.o)
 .bss           0x00000000        0x0 C:/Users/h274519/ON_Semiconductor/ONSemiconductor/RSL10/3.0.534/lib/ble_core/Release/libblelib.a(gattc.o)
 .text.gattc_get_op_seq_num
                0x00000000       0x14 C:/Users/h274519/ON_Semiconductor/ONSemiconductor/RSL10/3.0.534/lib/ble_core/Release/libblelib.a(gattc.o)
 .text          0x00000000        0x0 C:/Users/h274519/ON_Semiconductor/ONSemiconductor/RSL10/3.0.534/lib/ble_core/Release/libblelib.a(gattc_task.o)
 .data          0x00000000        0x0 C:/Users/h274519/ON_Semiconductor/ONSemiconductor/RSL10/3.0.534/lib/ble_core/Release/libblelib.a(gattc_task.o)
 .bss           0x00000000        0x0 C:/Users/h274519/ON_Semiconductor/ONSemiconductor/RSL10/3.0.534/lib/ble_core/Release/libblelib.a(gattc_task.o)
 .text          0x00000000        0x0 C:/Users/h274519/ON_Semiconductor/ONSemiconductor/RSL10/3.0.534/lib/ble_core/Release/libblelib.a(atts.o)
 .data          0x00000000        0x0 C:/Users/h274519/ON_Semiconductor/ONSemiconductor/RSL10/3.0.534/lib/ble_core/Release/libblelib.a(atts.o)
 .bss           0x00000000        0x0 C:/Users/h274519/ON_Semiconductor/ONSemiconductor/RSL10/3.0.534/lib/ble_core/Release/libblelib.a(atts.o)
 .text          0x00000000        0x0 C:/Users/h274519/ON_Semiconductor/ONSemiconductor/RSL10/3.0.534/lib/ble_core/Release/libblelib.a(attm.o)
 .data          0x00000000        0x0 C:/Users/h274519/ON_Semiconductor/ONSemiconductor/RSL10/3.0.534/lib/ble_core/Release/libblelib.a(attm.o)
 .bss           0x00000000        0x0 C:/Users/h274519/ON_Semiconductor/ONSemiconductor/RSL10/3.0.534/lib/ble_core/Release/libblelib.a(attm.o)
 .text.attm_svc_create_db_128
                0x00000000      0x11a C:/Users/h274519/ON_Semiconductor/ONSemiconductor/RSL10/3.0.534/lib/ble_core/Release/libblelib.a(attm.o)
 .text.attm_reserve_handle_range
                0x00000000       0x22 C:/Users/h274519/ON_Semiconductor/ONSemiconductor/RSL10/3.0.534/lib/ble_core/Release/libblelib.a(attm.o)
 .text          0x00000000        0x0 C:/Users/h274519/ON_Semiconductor/ONSemiconductor/RSL10/3.0.534/lib/ble_core/Release/libblelib.a(attm_db.o)
 .data          0x00000000        0x0 C:/Users/h274519/ON_Semiconductor/ONSemiconductor/RSL10/3.0.534/lib/ble_core/Release/libblelib.a(attm_db.o)
 .bss           0x00000000        0x0 C:/Users/h274519/ON_Semiconductor/ONSemiconductor/RSL10/3.0.534/lib/ble_core/Release/libblelib.a(attm_db.o)
 .text.attmdb_svc_visibility_set
                0x00000000       0x30 C:/Users/h274519/ON_Semiconductor/ONSemiconductor/RSL10/3.0.534/lib/ble_core/Release/libblelib.a(attm_db.o)
 .text          0x00000000        0x0 C:/Users/h274519/ON_Semiconductor/ONSemiconductor/RSL10/3.0.534/lib/ble_core/Release/libblelib.a(attc.o)
 .data          0x00000000        0x0 C:/Users/h274519/ON_Semiconductor/ONSemiconductor/RSL10/3.0.534/lib/ble_core/Release/libblelib.a(attc.o)
 .bss           0x00000000        0x0 C:/Users/h274519/ON_Semiconductor/ONSemiconductor/RSL10/3.0.534/lib/ble_core/Release/libblelib.a(attc.o)
 .text          0x00000000        0x0 C:/Users/h274519/ON_Semiconductor/ONSemiconductor/RSL10/3.0.534/lib/ble_core/Release/libblelib.a(gapm.o)
 .data          0x00000000        0x0 C:/Users/h274519/ON_Semiconductor/ONSemiconductor/RSL10/3.0.534/lib/ble_core/Release/libblelib.a(gapm.o)
 .bss           0x00000000        0x0 C:/Users/h274519/ON_Semiconductor/ONSemiconductor/RSL10/3.0.534/lib/ble_core/Release/libblelib.a(gapm.o)
 .text.gapm_get_id_from_task
                0x00000000       0x36 C:/Users/h274519/ON_Semiconductor/ONSemiconductor/RSL10/3.0.534/lib/ble_core/Release/libblelib.a(gapm.o)
 .text.gapm_get_task_from_id
                0x00000000       0x3e C:/Users/h274519/ON_Semiconductor/ONSemiconductor/RSL10/3.0.534/lib/ble_core/Release/libblelib.a(gapm.o)
 .text          0x00000000        0x0 C:/Users/h274519/ON_Semiconductor/ONSemiconductor/RSL10/3.0.534/lib/ble_core/Release/libblelib.a(gapm_task.o)
 .data          0x00000000        0x0 C:/Users/h274519/ON_Semiconductor/ONSemiconductor/RSL10/3.0.534/lib/ble_core/Release/libblelib.a(gapm_task.o)
 .bss           0x00000000        0x0 C:/Users/h274519/ON_Semiconductor/ONSemiconductor/RSL10/3.0.534/lib/ble_core/Release/libblelib.a(gapm_task.o)
 .text          0x00000000        0x0 C:/Users/h274519/ON_Semiconductor/ONSemiconductor/RSL10/3.0.534/lib/ble_core/Release/libblelib.a(gapm_util.o)
 .data          0x00000000        0x0 C:/Users/h274519/ON_Semiconductor/ONSemiconductor/RSL10/3.0.534/lib/ble_core/Release/libblelib.a(gapm_util.o)
 .bss           0x00000000        0x0 C:/Users/h274519/ON_Semiconductor/ONSemiconductor/RSL10/3.0.534/lib/ble_core/Release/libblelib.a(gapm_util.o)
 .text          0x00000000        0x0 C:/Users/h274519/ON_Semiconductor/ONSemiconductor/RSL10/3.0.534/lib/ble_core/Release/libblelib.a(gapc.o)
 .data          0x00000000        0x0 C:/Users/h274519/ON_Semiconductor/ONSemiconductor/RSL10/3.0.534/lib/ble_core/Release/libblelib.a(gapc.o)
 .bss           0x00000000        0x0 C:/Users/h274519/ON_Semiconductor/ONSemiconductor/RSL10/3.0.534/lib/ble_core/Release/libblelib.a(gapc.o)
 .text          0x00000000        0x0 C:/Users/h274519/ON_Semiconductor/ONSemiconductor/RSL10/3.0.534/lib/ble_core/Release/libblelib.a(gapc_task.o)
 .data          0x00000000        0x0 C:/Users/h274519/ON_Semiconductor/ONSemiconductor/RSL10/3.0.534/lib/ble_core/Release/libblelib.a(gapc_task.o)
 .bss           0x00000000        0x0 C:/Users/h274519/ON_Semiconductor/ONSemiconductor/RSL10/3.0.534/lib/ble_core/Release/libblelib.a(gapc_task.o)
 .text          0x00000000        0x0 C:/Users/h274519/ON_Semiconductor/ONSemiconductor/RSL10/3.0.534/lib/ble_core/Release/libblelib.a(ecc_p256.o)
 .data          0x00000000        0x0 C:/Users/h274519/ON_Semiconductor/ONSemiconductor/RSL10/3.0.534/lib/ble_core/Release/libblelib.a(ecc_p256.o)
 .bss           0x00000000        0x0 C:/Users/h274519/ON_Semiconductor/ONSemiconductor/RSL10/3.0.534/lib/ble_core/Release/libblelib.a(ecc_p256.o)
 .text.SubtractBigHexUint32_256
                0x00000000       0x64 C:/Users/h274519/ON_Semiconductor/ONSemiconductor/RSL10/3.0.534/lib/ble_core/Release/libblelib.a(ecc_p256.o)
 .text.ecc_abort_key256_generation
                0x00000000       0x44 C:/Users/h274519/ON_Semiconductor/ONSemiconductor/RSL10/3.0.534/lib/ble_core/Release/libblelib.a(ecc_p256.o)
 .text.ecc_get_debug_Keys
                0x00000000       0x2c C:/Users/h274519/ON_Semiconductor/ONSemiconductor/RSL10/3.0.534/lib/ble_core/Release/libblelib.a(ecc_p256.o)
 .rodata.DebugE256PublicKey_x
                0x00000000       0x20 C:/Users/h274519/ON_Semiconductor/ONSemiconductor/RSL10/3.0.534/lib/ble_core/Release/libblelib.a(ecc_p256.o)
 .rodata.DebugE256PublicKey_y
                0x00000000       0x20 C:/Users/h274519/ON_Semiconductor/ONSemiconductor/RSL10/3.0.534/lib/ble_core/Release/libblelib.a(ecc_p256.o)
 .rodata.DebugE256SecretKey
                0x00000000       0x20 C:/Users/h274519/ON_Semiconductor/ONSemiconductor/RSL10/3.0.534/lib/ble_core/Release/libblelib.a(ecc_p256.o)
 .text          0x00000000        0x0 C:/Users/h274519/ON_Semiconductor/ONSemiconductor/RSL10/3.0.534/lib/ble_core/Release/libblelib.a(ea.o)
 .data          0x00000000        0x0 C:/Users/h274519/ON_Semiconductor/ONSemiconductor/RSL10/3.0.534/lib/ble_core/Release/libblelib.a(ea.o)
 .bss           0x00000000        0x0 C:/Users/h274519/ON_Semiconductor/ONSemiconductor/RSL10/3.0.534/lib/ble_core/Release/libblelib.a(ea.o)
 .text.ea_interval_delete
                0x00000000       0x20 C:/Users/h274519/ON_Semiconductor/ONSemiconductor/RSL10/3.0.534/lib/ble_core/Release/libblelib.a(ea.o)
 .text.ea_timer_target_get
                0x00000000       0x10 C:/Users/h274519/ON_Semiconductor/ONSemiconductor/RSL10/3.0.534/lib/ble_core/Release/libblelib.a(ea.o)
 .text          0x00000000        0x0 C:/Users/h274519/ON_Semiconductor/ONSemiconductor/RSL10/3.0.534/lib/ble_core/Release/libblelib.a(llm_hci.o)
 .data          0x00000000        0x0 C:/Users/h274519/ON_Semiconductor/ONSemiconductor/RSL10/3.0.534/lib/ble_core/Release/libblelib.a(llm_hci.o)
 .bss           0x00000000        0x0 C:/Users/h274519/ON_Semiconductor/ONSemiconductor/RSL10/3.0.534/lib/ble_core/Release/libblelib.a(llm_hci.o)
 .text          0x00000000        0x0 C:/Users/h274519/ON_Semiconductor/ONSemiconductor/RSL10/3.0.534/lib/ble_core/Release/libblelib.a(llc_ch_asses.o)
 .data          0x00000000        0x0 C:/Users/h274519/ON_Semiconductor/ONSemiconductor/RSL10/3.0.534/lib/ble_core/Release/libblelib.a(llc_ch_asses.o)
 .bss           0x00000000        0x0 C:/Users/h274519/ON_Semiconductor/ONSemiconductor/RSL10/3.0.534/lib/ble_core/Release/libblelib.a(llc_ch_asses.o)
 .text          0x00000000        0x0 C:/Users/h274519/ON_Semiconductor/ONSemiconductor/RSL10/3.0.534/lib/ble_core/Release/libblelib.a(llc_hci.o)
 .data          0x00000000        0x0 C:/Users/h274519/ON_Semiconductor/ONSemiconductor/RSL10/3.0.534/lib/ble_core/Release/libblelib.a(llc_hci.o)
 .bss           0x00000000        0x0 C:/Users/h274519/ON_Semiconductor/ONSemiconductor/RSL10/3.0.534/lib/ble_core/Release/libblelib.a(llc_hci.o)
 .text          0x00000000        0x0 C:/Users/h274519/ON_Semiconductor/ONSemiconductor/RSL10/3.0.534/lib/ble_core/Release/libblelib.a(l2cc_sig.o)
 .data          0x00000000        0x0 C:/Users/h274519/ON_Semiconductor/ONSemiconductor/RSL10/3.0.534/lib/ble_core/Release/libblelib.a(l2cc_sig.o)
 .bss           0x00000000        0x0 C:/Users/h274519/ON_Semiconductor/ONSemiconductor/RSL10/3.0.534/lib/ble_core/Release/libblelib.a(l2cc_sig.o)
 .text          0x00000000        0x0 C:/Users/h274519/ON_Semiconductor/ONSemiconductor/RSL10/3.0.534/lib/ble_core/Release/libblelib.a(smpm_api.o)
 .data          0x00000000        0x0 C:/Users/h274519/ON_Semiconductor/ONSemiconductor/RSL10/3.0.534/lib/ble_core/Release/libblelib.a(smpm_api.o)
 .bss           0x00000000        0x0 C:/Users/h274519/ON_Semiconductor/ONSemiconductor/RSL10/3.0.534/lib/ble_core/Release/libblelib.a(smpm_api.o)
 .text          0x00000000        0x0 C:/Users/h274519/ON_Semiconductor/ONSemiconductor/RSL10/3.0.534/lib/ble_core/Release/libblelib.a(smpc.o)
 .data          0x00000000        0x0 C:/Users/h274519/ON_Semiconductor/ONSemiconductor/RSL10/3.0.534/lib/ble_core/Release/libblelib.a(smpc.o)
 .bss           0x00000000        0x0 C:/Users/h274519/ON_Semiconductor/ONSemiconductor/RSL10/3.0.534/lib/ble_core/Release/libblelib.a(smpc.o)
 .text          0x00000000        0x0 C:/Users/h274519/ON_Semiconductor/ONSemiconductor/RSL10/3.0.534/lib/ble_core/Release/libblelib.a(smpc_api.o)
 .data          0x00000000        0x0 C:/Users/h274519/ON_Semiconductor/ONSemiconductor/RSL10/3.0.534/lib/ble_core/Release/libblelib.a(smpc_api.o)
 .bss           0x00000000        0x0 C:/Users/h274519/ON_Semiconductor/ONSemiconductor/RSL10/3.0.534/lib/ble_core/Release/libblelib.a(smpc_api.o)
 .text          0x00000000        0x0 C:/Users/h274519/ON_Semiconductor/ONSemiconductor/RSL10/3.0.534/lib/ble_core/Release/libblelib.a(smpc_crypto.o)
 .data          0x00000000        0x0 C:/Users/h274519/ON_Semiconductor/ONSemiconductor/RSL10/3.0.534/lib/ble_core/Release/libblelib.a(smpc_crypto.o)
 .bss           0x00000000        0x0 C:/Users/h274519/ON_Semiconductor/ONSemiconductor/RSL10/3.0.534/lib/ble_core/Release/libblelib.a(smpc_crypto.o)
 .text          0x00000000        0x0 C:/Users/h274519/ON_Semiconductor/ONSemiconductor/RSL10/3.0.534/lib/ble_core/Release/libblelib.a(smpc_util.o)
 .data          0x00000000        0x0 C:/Users/h274519/ON_Semiconductor/ONSemiconductor/RSL10/3.0.534/lib/ble_core/Release/libblelib.a(smpc_util.o)
 .bss           0x00000000        0x0 C:/Users/h274519/ON_Semiconductor/ONSemiconductor/RSL10/3.0.534/lib/ble_core/Release/libblelib.a(smpc_util.o)
 .text          0x00000000        0x0 C:/Users/h274519/ON_Semiconductor/ONSemiconductor/RSL10/3.0.534/lib/ble_core/Release/libblelib.a(gapm_hci.o)
 .data          0x00000000        0x0 C:/Users/h274519/ON_Semiconductor/ONSemiconductor/RSL10/3.0.534/lib/ble_core/Release/libblelib.a(gapm_hci.o)
 .bss           0x00000000        0x0 C:/Users/h274519/ON_Semiconductor/ONSemiconductor/RSL10/3.0.534/lib/ble_core/Release/libblelib.a(gapm_hci.o)
 .text          0x00000000        0x0 C:/Users/h274519/ON_Semiconductor/ONSemiconductor/RSL10/3.0.534/lib/ble_core/Release/libblelib.a(gapc_hci.o)
 .data          0x00000000        0x0 C:/Users/h274519/ON_Semiconductor/ONSemiconductor/RSL10/3.0.534/lib/ble_core/Release/libblelib.a(gapc_hci.o)
 .bss           0x00000000        0x0 C:/Users/h274519/ON_Semiconductor/ONSemiconductor/RSL10/3.0.534/lib/ble_core/Release/libblelib.a(gapc_hci.o)
 .text          0x00000000        0x0 C:/Users/h274519/ON_Semiconductor/ONSemiconductor/RSL10/3.0.534/lib/ble_core/Release/libblelib.a(gapc_sig.o)
 .data          0x00000000        0x0 C:/Users/h274519/ON_Semiconductor/ONSemiconductor/RSL10/3.0.534/lib/ble_core/Release/libblelib.a(gapc_sig.o)
 .bss           0x00000000        0x0 C:/Users/h274519/ON_Semiconductor/ONSemiconductor/RSL10/3.0.534/lib/ble_core/Release/libblelib.a(gapc_sig.o)
 .rodata.gapc_sig_handlers
                0x00000000       0x18 C:/Users/h274519/ON_Semiconductor/ONSemiconductor/RSL10/3.0.534/lib/ble_core/Release/libblelib.a(gapc_sig.o)
 .text          0x00000000        0x0 C:/Users/h274519/ON_Semiconductor/ONSemiconductor/RSL10/3.0.534/lib/ble_core/Release/libkelib.a(ke.o)
 .data          0x00000000        0x0 C:/Users/h274519/ON_Semiconductor/ONSemiconductor/RSL10/3.0.534/lib/ble_core/Release/libkelib.a(ke.o)
 .bss           0x00000000        0x0 C:/Users/h274519/ON_Semiconductor/ONSemiconductor/RSL10/3.0.534/lib/ble_core/Release/libkelib.a(ke.o)
 .text.ke_sleep_check
                0x00000000        0xe C:/Users/h274519/ON_Semiconductor/ONSemiconductor/RSL10/3.0.534/lib/ble_core/Release/libkelib.a(ke.o)
 .text          0x00000000        0x0 C:/Users/h274519/ON_Semiconductor/ONSemiconductor/RSL10/3.0.534/lib/ble_core/Release/libkelib.a(ke_event.o)
 .data          0x00000000        0x0 C:/Users/h274519/ON_Semiconductor/ONSemiconductor/RSL10/3.0.534/lib/ble_core/Release/libkelib.a(ke_event.o)
 .bss           0x00000000        0x0 C:/Users/h274519/ON_Semiconductor/ONSemiconductor/RSL10/3.0.534/lib/ble_core/Release/libkelib.a(ke_event.o)
 .text.ke_event_get
                0x00000000       0x20 C:/Users/h274519/ON_Semiconductor/ONSemiconductor/RSL10/3.0.534/lib/ble_core/Release/libkelib.a(ke_event.o)
 .text.ke_event_get_all
                0x00000000        0xc C:/Users/h274519/ON_Semiconductor/ONSemiconductor/RSL10/3.0.534/lib/ble_core/Release/libkelib.a(ke_event.o)
 .text          0x00000000        0x0 C:/Users/h274519/ON_Semiconductor/ONSemiconductor/RSL10/3.0.534/lib/ble_core/Release/libkelib.a(ke_mem.o)
 .data          0x00000000        0x0 C:/Users/h274519/ON_Semiconductor/ONSemiconductor/RSL10/3.0.534/lib/ble_core/Release/libkelib.a(ke_mem.o)
 .bss           0x00000000        0x0 C:/Users/h274519/ON_Semiconductor/ONSemiconductor/RSL10/3.0.534/lib/ble_core/Release/libkelib.a(ke_mem.o)
 .text.ke_mem_is_empty
                0x00000000       0x28 C:/Users/h274519/ON_Semiconductor/ONSemiconductor/RSL10/3.0.534/lib/ble_core/Release/libkelib.a(ke_mem.o)
 .text          0x00000000        0x0 C:/Users/h274519/ON_Semiconductor/ONSemiconductor/RSL10/3.0.534/lib/ble_core/Release/libkelib.a(ke_msg.o)
 .data          0x00000000        0x0 C:/Users/h274519/ON_Semiconductor/ONSemiconductor/RSL10/3.0.534/lib/ble_core/Release/libkelib.a(ke_msg.o)
 .bss           0x00000000        0x0 C:/Users/h274519/ON_Semiconductor/ONSemiconductor/RSL10/3.0.534/lib/ble_core/Release/libkelib.a(ke_msg.o)
 .text.ke_msg_forward_new_id
                0x00000000       0x14 C:/Users/h274519/ON_Semiconductor/ONSemiconductor/RSL10/3.0.534/lib/ble_core/Release/libkelib.a(ke_msg.o)
 .text.ke_msg_dest_id_get
                0x00000000        0x6 C:/Users/h274519/ON_Semiconductor/ONSemiconductor/RSL10/3.0.534/lib/ble_core/Release/libkelib.a(ke_msg.o)
 .text          0x00000000        0x0 C:/Users/h274519/ON_Semiconductor/ONSemiconductor/RSL10/3.0.534/lib/ble_core/Release/libkelib.a(ke_task.o)
 .data          0x00000000        0x0 C:/Users/h274519/ON_Semiconductor/ONSemiconductor/RSL10/3.0.534/lib/ble_core/Release/libkelib.a(ke_task.o)
 .bss           0x00000000        0x0 C:/Users/h274519/ON_Semiconductor/ONSemiconductor/RSL10/3.0.534/lib/ble_core/Release/libkelib.a(ke_task.o)
 .text.ke_task_delete
                0x00000000       0x1c C:/Users/h274519/ON_Semiconductor/ONSemiconductor/RSL10/3.0.534/lib/ble_core/Release/libkelib.a(ke_task.o)
 .text.ke_msg_save
                0x00000000        0x4 C:/Users/h274519/ON_Semiconductor/ONSemiconductor/RSL10/3.0.534/lib/ble_core/Release/libkelib.a(ke_task.o)
 .text.ke_task_check
                0x00000000       0x24 C:/Users/h274519/ON_Semiconductor/ONSemiconductor/RSL10/3.0.534/lib/ble_core/Release/libkelib.a(ke_task.o)
 .text          0x00000000        0x0 C:/Users/h274519/ON_Semiconductor/ONSemiconductor/RSL10/3.0.534/lib/ble_core/Release/libkelib.a(ke_timer.o)
 .data          0x00000000        0x0 C:/Users/h274519/ON_Semiconductor/ONSemiconductor/RSL10/3.0.534/lib/ble_core/Release/libkelib.a(ke_timer.o)
 .bss           0x00000000        0x0 C:/Users/h274519/ON_Semiconductor/ONSemiconductor/RSL10/3.0.534/lib/ble_core/Release/libkelib.a(ke_timer.o)
 .text.ke_timer_adjust_all
                0x00000000       0x18 C:/Users/h274519/ON_Semiconductor/ONSemiconductor/RSL10/3.0.534/lib/ble_core/Release/libkelib.a(ke_timer.o)
 .text.ke_timer_target_get
                0x00000000       0x18 C:/Users/h274519/ON_Semiconductor/ONSemiconductor/RSL10/3.0.534/lib/ble_core/Release/libkelib.a(ke_timer.o)
 .text          0x00000000        0x0 C:/Users/h274519/ON_Semiconductor/ONSemiconductor/RSL10/3.0.534/lib/ble_core/Release/libkelib.a(rst_grosstime.o)
 .data          0x00000000        0x0 C:/Users/h274519/ON_Semiconductor/ONSemiconductor/RSL10/3.0.534/lib/ble_core/Release/libkelib.a(rst_grosstime.o)
 .bss           0x00000000        0x0 C:/Users/h274519/ON_Semiconductor/ONSemiconductor/RSL10/3.0.534/lib/ble_core/Release/libkelib.a(rst_grosstime.o)
 .text          0x00000000        0x0 C:/Users/h274519/ON_Semiconductor/ONSemiconductor/RSL10/3.0.534/lib/ble_core/Release/libkelib.a(rwip2.o)
 .data          0x00000000        0x0 C:/Users/h274519/ON_Semiconductor/ONSemiconductor/RSL10/3.0.534/lib/ble_core/Release/libkelib.a(rwip2.o)
 .bss           0x00000000        0x0 C:/Users/h274519/ON_Semiconductor/ONSemiconductor/RSL10/3.0.534/lib/ble_core/Release/libkelib.a(rwip2.o)
 .text          0x00000000        0x0 C:/Users/h274519/ON_Semiconductor/ONSemiconductor/RSL10/3.0.534/lib/ble_core/Release/libkelib.a(co_list.o)
 .data          0x00000000        0x0 C:/Users/h274519/ON_Semiconductor/ONSemiconductor/RSL10/3.0.534/lib/ble_core/Release/libkelib.a(co_list.o)
 .bss           0x00000000        0x0 C:/Users/h274519/ON_Semiconductor/ONSemiconductor/RSL10/3.0.534/lib/ble_core/Release/libkelib.a(co_list.o)
 .text.co_list_pool_init
                0x00000000       0x62 C:/Users/h274519/ON_Semiconductor/ONSemiconductor/RSL10/3.0.534/lib/ble_core/Release/libkelib.a(co_list.o)
 .text.co_list_push_back_sublist
                0x00000000       0x14 C:/Users/h274519/ON_Semiconductor/ONSemiconductor/RSL10/3.0.534/lib/ble_core/Release/libkelib.a(co_list.o)
 .text.co_list_check_size_available
                0x00000000       0x16 C:/Users/h274519/ON_Semiconductor/ONSemiconductor/RSL10/3.0.534/lib/ble_core/Release/libkelib.a(co_list.o)
 .text          0x00000000        0x0 C:/Users/h274519/ON_Semiconductor/ONSemiconductor/RSL10/3.0.534/lib/ble_core/Release/libkelib.a(co_utils.o)
 .data          0x00000000        0x0 C:/Users/h274519/ON_Semiconductor/ONSemiconductor/RSL10/3.0.534/lib/ble_core/Release/libkelib.a(co_utils.o)
 .bss           0x00000000        0x0 C:/Users/h274519/ON_Semiconductor/ONSemiconductor/RSL10/3.0.534/lib/ble_core/Release/libkelib.a(co_utils.o)
 .rodata.one_bits
                0x00000000       0x10 C:/Users/h274519/ON_Semiconductor/ONSemiconductor/RSL10/3.0.534/lib/ble_core/Release/libkelib.a(co_utils.o)
 .text          0x00000000        0x0 C:/Users/h274519/ON_Semiconductor/ONSemiconductor/RSL10/3.0.534/lib/ble_core/Release/libkelib.a(ke_queue.o)
 .data          0x00000000        0x0 C:/Users/h274519/ON_Semiconductor/ONSemiconductor/RSL10/3.0.534/lib/ble_core/Release/libkelib.a(ke_queue.o)
 .bss           0x00000000        0x0 C:/Users/h274519/ON_Semiconductor/ONSemiconductor/RSL10/3.0.534/lib/ble_core/Release/libkelib.a(ke_queue.o)
 .text          0x00000000        0x0 C:/Users/h274519/ON_Semiconductor/ONSemiconductor/RSL10/3.0.534/lib/ble_profiles/Release/libbass.a(bass.o)
 .data          0x00000000        0x0 C:/Users/h274519/ON_Semiconductor/ONSemiconductor/RSL10/3.0.534/lib/ble_profiles/Release/libbass.a(bass.o)
 .bss           0x00000000        0x0 C:/Users/h274519/ON_Semiconductor/ONSemiconductor/RSL10/3.0.534/lib/ble_profiles/Release/libbass.a(bass.o)
 .text          0x00000000        0x0 C:/Users/h274519/ON_Semiconductor/ONSemiconductor/RSL10/3.0.534/lib/ble_profiles/Release/libbass.a(bass_task.o)
 .data          0x00000000        0x0 C:/Users/h274519/ON_Semiconductor/ONSemiconductor/RSL10/3.0.534/lib/ble_profiles/Release/libbass.a(bass_task.o)
 .bss           0x00000000        0x0 C:/Users/h274519/ON_Semiconductor/ONSemiconductor/RSL10/3.0.534/lib/ble_profiles/Release/libbass.a(bass_task.o)
 .text          0x00000000        0x0 C:/Users/h274519/ON_Semiconductor/ONSemiconductor/RSL10/3.0.534/lib/Release/libsyslib.a(rsl10_protocol.o)
 .data          0x00000000        0x0 C:/Users/h274519/ON_Semiconductor/ONSemiconductor/RSL10/3.0.534/lib/Release/libsyslib.a(rsl10_protocol.o)
 .bss           0x00000000        0x0 C:/Users/h274519/ON_Semiconductor/ONSemiconductor/RSL10/3.0.534/lib/Release/libsyslib.a(rsl10_protocol.o)
 .text.Device_Param_Prepare
                0x00000000        0xe C:/Users/h274519/ON_Semiconductor/ONSemiconductor/RSL10/3.0.534/lib/Release/libsyslib.a(rsl10_protocol.o)
 .text.BLE_DeviceParam_Set_ADV_IFS
                0x00000000       0x10 C:/Users/h274519/ON_Semiconductor/ONSemiconductor/RSL10/3.0.534/lib/Release/libsyslib.a(rsl10_protocol.o)
 .text.BLE_DeviceParam_Set_ForcedClockAccuracy
                0x00000000       0x1c C:/Users/h274519/ON_Semiconductor/ONSemiconductor/RSL10/3.0.534/lib/Release/libsyslib.a(rsl10_protocol.o)
 .text.BLE_DeviceParam_Set_MaxNumRAL
                0x00000000       0x2c C:/Users/h274519/ON_Semiconductor/ONSemiconductor/RSL10/3.0.534/lib/Release/libsyslib.a(rsl10_protocol.o)
 .text          0x00000000        0x0 C:/Users/h274519/ON_Semiconductor/ONSemiconductor/RSL10/3.0.534/lib/Release/libsyslib.a(rsl10_sys_dma.o)
 .data          0x00000000        0x0 C:/Users/h274519/ON_Semiconductor/ONSemiconductor/RSL10/3.0.534/lib/Release/libsyslib.a(rsl10_sys_dma.o)
 .bss           0x00000000        0x0 C:/Users/h274519/ON_Semiconductor/ONSemiconductor/RSL10/3.0.534/lib/Release/libsyslib.a(rsl10_sys_dma.o)
 .text          0x00000000        0x0 C:/Users/h274519/ON_Semiconductor/ONSemiconductor/RSL10/3.0.534/lib/Release/libsyslib.a(rsl10_sys_power_modes.o)
 .data          0x00000000        0x0 C:/Users/h274519/ON_Semiconductor/ONSemiconductor/RSL10/3.0.534/lib/Release/libsyslib.a(rsl10_sys_power_modes.o)
 .bss           0x00000000        0x0 C:/Users/h274519/ON_Semiconductor/ONSemiconductor/RSL10/3.0.534/lib/Release/libsyslib.a(rsl10_sys_power_modes.o)
 .sys_powermodes_sleep
                0x00000000       0xac C:/Users/h274519/ON_Semiconductor/ONSemiconductor/RSL10/3.0.534/lib/Release/libsyslib.a(rsl10_sys_power_modes.o)
 .sys_powermodes_wakeup
                0x00000000       0xec C:/Users/h274519/ON_Semiconductor/ONSemiconductor/RSL10/3.0.534/lib/Release/libsyslib.a(rsl10_sys_power_modes.o)
 .sys_powermodes_wakeup_2mbps
                0x00000000      0x190 C:/Users/h274519/ON_Semiconductor/ONSemiconductor/RSL10/3.0.534/lib/Release/libsyslib.a(rsl10_sys_power_modes.o)
 .text.Sys_PowerModes_Sleep_Init
                0x00000000       0xc4 C:/Users/h274519/ON_Semiconductor/ONSemiconductor/RSL10/3.0.534/lib/Release/libsyslib.a(rsl10_sys_power_modes.o)
 .text.Sys_PowerModes_Sleep_Init_2Mbps
                0x00000000      0x144 C:/Users/h274519/ON_Semiconductor/ONSemiconductor/RSL10/3.0.534/lib/Release/libsyslib.a(rsl10_sys_power_modes.o)
 .text.Sys_PowerModes_Sleep_WakeupFromFlash
                0x00000000       0x44 C:/Users/h274519/ON_Semiconductor/ONSemiconductor/RSL10/3.0.534/lib/Release/libsyslib.a(rsl10_sys_power_modes.o)
 .text.Sys_PowerModes_Standby_Init
                0x00000000       0xe8 C:/Users/h274519/ON_Semiconductor/ONSemiconductor/RSL10/3.0.534/lib/Release/libsyslib.a(rsl10_sys_power_modes.o)
 .text.Sys_PowerModes_Standby
                0x00000000       0x90 C:/Users/h274519/ON_Semiconductor/ONSemiconductor/RSL10/3.0.534/lib/Release/libsyslib.a(rsl10_sys_power_modes.o)
 .text.Sys_PowerModes_Standby_Wakeup
                0x00000000      0x128 C:/Users/h274519/ON_Semiconductor/ONSemiconductor/RSL10/3.0.534/lib/Release/libsyslib.a(rsl10_sys_power_modes.o)
 .bss.bb_registers_image
                0x00000000      0x1b4 C:/Users/h274519/ON_Semiconductor/ONSemiconductor/RSL10/3.0.534/lib/Release/libsyslib.a(rsl10_sys_power_modes.o)
 .bss.rf_registers_image_1
                0x00000000       0xc0 C:/Users/h274519/ON_Semiconductor/ONSemiconductor/RSL10/3.0.534/lib/Release/libsyslib.a(rsl10_sys_power_modes.o)
 .bss.rf_registers_image_2_0x06_0x07
                0x00000000        0x2 C:/Users/h274519/ON_Semiconductor/ONSemiconductor/RSL10/3.0.534/lib/Release/libsyslib.a(rsl10_sys_power_modes.o)
 .bss.rf_registers_image_2_0x08
                0x00000000        0x1 C:/Users/h274519/ON_Semiconductor/ONSemiconductor/RSL10/3.0.534/lib/Release/libsyslib.a(rsl10_sys_power_modes.o)
 .bss.rf_registers_image_2_0x1C_0x6F
                0x00000000       0x54 C:/Users/h274519/ON_Semiconductor/ONSemiconductor/RSL10/3.0.534/lib/Release/libsyslib.a(rsl10_sys_power_modes.o)
 .bss.rf_registers_image_2_0x9F
                0x00000000        0x1 C:/Users/h274519/ON_Semiconductor/ONSemiconductor/RSL10/3.0.534/lib/Release/libsyslib.a(rsl10_sys_power_modes.o)
 .comment       0x00000000       0x80 C:/Users/h274519/ON_Semiconductor/ONSemiconductor/RSL10/3.0.534/lib/Release/libsyslib.a(rsl10_sys_power_modes.o)
 .ARM.attributes
                0x00000000       0x33 C:/Users/h274519/ON_Semiconductor/ONSemiconductor/RSL10/3.0.534/lib/Release/libsyslib.a(rsl10_sys_power_modes.o)
 .text          0x00000000        0x0 C:/Users/h274519/ON_Semiconductor/ONSemiconductor/RSL10/3.0.534/lib/Release/libsyslib.a(rsl10_sys_rffe.o)
 .data          0x00000000        0x0 C:/Users/h274519/ON_Semiconductor/ONSemiconductor/RSL10/3.0.534/lib/Release/libsyslib.a(rsl10_sys_rffe.o)
 .bss           0x00000000        0x0 C:/Users/h274519/ON_Semiconductor/ONSemiconductor/RSL10/3.0.534/lib/Release/libsyslib.a(rsl10_sys_rffe.o)
 .text          0x00000000        0x0 C:/Users/h274519/ON_Semiconductor/ONSemiconductor/RSL10/3.0.534/lib/Release/libsyslib.a(rsl10_sys_uart.o)
 .data          0x00000000        0x0 C:/Users/h274519/ON_Semiconductor/ONSemiconductor/RSL10/3.0.534/lib/Release/libsyslib.a(rsl10_sys_uart.o)
 .bss           0x00000000        0x0 C:/Users/h274519/ON_Semiconductor/ONSemiconductor/RSL10/3.0.534/lib/Release/libsyslib.a(rsl10_sys_uart.o)
 .text          0x00000000        0x0 C:/Users/h274519/ON_Semiconductor/ONSemiconductor/RSL10/3.0.534/lib/Release/libsyslib.a(rsl10_sys_power.o)
 .data          0x00000000        0x0 C:/Users/h274519/ON_Semiconductor/ONSemiconductor/RSL10/3.0.534/lib/Release/libsyslib.a(rsl10_sys_power.o)
 .bss           0x00000000        0x0 C:/Users/h274519/ON_Semiconductor/ONSemiconductor/RSL10/3.0.534/lib/Release/libsyslib.a(rsl10_sys_power.o)
 .text.Sys_Power_BandGapCalibratedConfig
                0x00000000       0x30 C:/Users/h274519/ON_Semiconductor/ONSemiconductor/RSL10/3.0.534/lib/Release/libsyslib.a(rsl10_sys_power.o)
 .text.Sys_Power_VDDPACalibratedConfig
                0x00000000       0x30 C:/Users/h274519/ON_Semiconductor/ONSemiconductor/RSL10/3.0.534/lib/Release/libsyslib.a(rsl10_sys_power.o)
 .text.Sys_Power_VDDCCalibratedConfig
                0x00000000       0x30 C:/Users/h274519/ON_Semiconductor/ONSemiconductor/RSL10/3.0.534/lib/Release/libsyslib.a(rsl10_sys_power.o)
 .text.Sys_Power_VDDCStandbyCalibratedConfig
                0x00000000       0x30 C:/Users/h274519/ON_Semiconductor/ONSemiconductor/RSL10/3.0.534/lib/Release/libsyslib.a(rsl10_sys_power.o)
 .text.Sys_Power_VDDMCalibratedConfig
                0x00000000       0x30 C:/Users/h274519/ON_Semiconductor/ONSemiconductor/RSL10/3.0.534/lib/Release/libsyslib.a(rsl10_sys_power.o)
 .text.Sys_Power_VDDMStandbyCalibratedConfig
                0x00000000       0x30 C:/Users/h274519/ON_Semiconductor/ONSemiconductor/RSL10/3.0.534/lib/Release/libsyslib.a(rsl10_sys_power.o)
 .text.Sys_Power_DCDCCalibratedConfig
                0x00000000       0x44 C:/Users/h274519/ON_Semiconductor/ONSemiconductor/RSL10/3.0.534/lib/Release/libsyslib.a(rsl10_sys_power.o)
 .data          0x00000000        0x0 C:/Users/h274519/ON_Semiconductor/ONSemiconductor/RSL10/3.0.534/lib/Release/libcmsis.a(startup_rsl10.o)
 .bss           0x00000000        0x0 C:/Users/h274519/ON_Semiconductor/ONSemiconductor/RSL10/3.0.534/lib/Release/libcmsis.a(startup_rsl10.o)
 .ARM.extab.reset
                0x00000000        0x0 C:/Users/h274519/ON_Semiconductor/ONSemiconductor/RSL10/3.0.534/lib/Release/libcmsis.a(startup_rsl10.o)
 .text          0x00000000        0x0 C:/Users/h274519/ON_Semiconductor/ONSemiconductor/RSL10/3.0.534/lib/Release/libcmsis.a(start.o)
 .data          0x00000000        0x0 C:/Users/h274519/ON_Semiconductor/ONSemiconductor/RSL10/3.0.534/lib/Release/libcmsis.a(start.o)
 .bss           0x00000000        0x0 C:/Users/h274519/ON_Semiconductor/ONSemiconductor/RSL10/3.0.534/lib/Release/libcmsis.a(start.o)
 .text          0x00000000        0x0 C:/Users/h274519/ON_Semiconductor/ONSemiconductor/RSL10/3.0.534/lib/Release/libcmsis.a(system_rsl10.o)
 .data          0x00000000        0x0 C:/Users/h274519/ON_Semiconductor/ONSemiconductor/RSL10/3.0.534/lib/Release/libcmsis.a(system_rsl10.o)
 .bss           0x00000000        0x0 C:/Users/h274519/ON_Semiconductor/ONSemiconductor/RSL10/3.0.534/lib/Release/libcmsis.a(system_rsl10.o)
 .text          0x00000000        0x0 C:/Users/h274519/ON_Semiconductor/ONSemiconductor/RSL10/3.0.534/lib/Release/libcmsis.a(sbrk.o)
 .data          0x00000000        0x0 C:/Users/h274519/ON_Semiconductor/ONSemiconductor/RSL10/3.0.534/lib/Release/libcmsis.a(sbrk.o)
 .bss           0x00000000        0x0 C:/Users/h274519/ON_Semiconductor/ONSemiconductor/RSL10/3.0.534/lib/Release/libcmsis.a(sbrk.o)
 .text          0x00000000        0x0 C:\Users\h274519\ON_Semiconductor\ONSemiconductor\RSL10\3.0.534\lib\ble_profiles\Release\libDISS.a(diss.o)
 .data          0x00000000        0x0 C:\Users\h274519\ON_Semiconductor\ONSemiconductor\RSL10\3.0.534\lib\ble_profiles\Release\libDISS.a(diss.o)
 .bss           0x00000000        0x0 C:\Users\h274519\ON_Semiconductor\ONSemiconductor\RSL10\3.0.534\lib\ble_profiles\Release\libDISS.a(diss.o)
 .text          0x00000000        0x0 C:\Users\h274519\ON_Semiconductor\ONSemiconductor\RSL10\3.0.534\lib\ble_profiles\Release\libDISS.a(diss_task.o)
 .data          0x00000000        0x0 C:\Users\h274519\ON_Semiconductor\ONSemiconductor\RSL10\3.0.534\lib\ble_profiles\Release\libDISS.a(diss_task.o)
 .bss           0x00000000        0x0 C:\Users\h274519\ON_Semiconductor\ONSemiconductor\RSL10\3.0.534\lib\ble_profiles\Release\libDISS.a(diss_task.o)
 .data          0x00000000        0x0 c:/program files (x86)/on semiconductor/ide/arm_tools/bin/../lib/gcc/arm-none-eabi/6.3.1/thumb/v7-m\libgcc.a(_arm_addsubdf3.o)
 .bss           0x00000000        0x0 c:/program files (x86)/on semiconductor/ide/arm_tools/bin/../lib/gcc/arm-none-eabi/6.3.1/thumb/v7-m\libgcc.a(_arm_addsubdf3.o)
 .data          0x00000000        0x0 c:/program files (x86)/on semiconductor/ide/arm_tools/bin/../lib/gcc/arm-none-eabi/6.3.1/thumb/v7-m\libgcc.a(_arm_muldivdf3.o)
 .bss           0x00000000        0x0 c:/program files (x86)/on semiconductor/ide/arm_tools/bin/../lib/gcc/arm-none-eabi/6.3.1/thumb/v7-m\libgcc.a(_arm_muldivdf3.o)
 .data          0x00000000        0x0 c:/program files (x86)/on semiconductor/ide/arm_tools/bin/../lib/gcc/arm-none-eabi/6.3.1/thumb/v7-m\libgcc.a(_arm_fixdfsi.o)
 .bss           0x00000000        0x0 c:/program files (x86)/on semiconductor/ide/arm_tools/bin/../lib/gcc/arm-none-eabi/6.3.1/thumb/v7-m\libgcc.a(_arm_fixdfsi.o)
 .data          0x00000000        0x0 c:/program files (x86)/on semiconductor/ide/arm_tools/bin/../lib/gcc/arm-none-eabi/6.3.1/thumb/v7-m\libgcc.a(_arm_fixunsdfsi.o)
 .bss           0x00000000        0x0 c:/program files (x86)/on semiconductor/ide/arm_tools/bin/../lib/gcc/arm-none-eabi/6.3.1/thumb/v7-m\libgcc.a(_arm_fixunsdfsi.o)
 .data          0x00000000        0x0 c:/program files (x86)/on semiconductor/ide/arm_tools/bin/../lib/gcc/arm-none-eabi/6.3.1/thumb/v7-m\libgcc.a(_arm_truncdfsf2.o)
 .bss           0x00000000        0x0 c:/program files (x86)/on semiconductor/ide/arm_tools/bin/../lib/gcc/arm-none-eabi/6.3.1/thumb/v7-m\libgcc.a(_arm_truncdfsf2.o)
 .text          0x00000000      0x2a0 c:/program files (x86)/on semiconductor/ide/arm_tools/bin/../lib/gcc/arm-none-eabi/6.3.1/thumb/v7-m\libgcc.a(_arm_muldivsf3.o)
 .data          0x00000000        0x0 c:/program files (x86)/on semiconductor/ide/arm_tools/bin/../lib/gcc/arm-none-eabi/6.3.1/thumb/v7-m\libgcc.a(_arm_muldivsf3.o)
 .bss           0x00000000        0x0 c:/program files (x86)/on semiconductor/ide/arm_tools/bin/../lib/gcc/arm-none-eabi/6.3.1/thumb/v7-m\libgcc.a(_arm_muldivsf3.o)
 .debug_frame   0x00000000       0x38 c:/program files (x86)/on semiconductor/ide/arm_tools/bin/../lib/gcc/arm-none-eabi/6.3.1/thumb/v7-m\libgcc.a(_arm_muldivsf3.o)
 .ARM.attributes
                0x00000000       0x1d c:/program files (x86)/on semiconductor/ide/arm_tools/bin/../lib/gcc/arm-none-eabi/6.3.1/thumb/v7-m\libgcc.a(_arm_muldivsf3.o)
 .data          0x00000000        0x0 c:/program files (x86)/on semiconductor/ide/arm_tools/bin/../lib/gcc/arm-none-eabi/6.3.1/thumb/v7-m\libgcc.a(_arm_fixsfsi.o)
 .bss           0x00000000        0x0 c:/program files (x86)/on semiconductor/ide/arm_tools/bin/../lib/gcc/arm-none-eabi/6.3.1/thumb/v7-m\libgcc.a(_arm_fixsfsi.o)
 .text          0x00000000       0x30 c:/program files (x86)/on semiconductor/ide/arm_tools/bin/../lib/gcc/arm-none-eabi/6.3.1/thumb/v7-m\libgcc.a(_aeabi_uldivmod.o)
 .data          0x00000000        0x0 c:/program files (x86)/on semiconductor/ide/arm_tools/bin/../lib/gcc/arm-none-eabi/6.3.1/thumb/v7-m\libgcc.a(_aeabi_uldivmod.o)
 .bss           0x00000000        0x0 c:/program files (x86)/on semiconductor/ide/arm_tools/bin/../lib/gcc/arm-none-eabi/6.3.1/thumb/v7-m\libgcc.a(_aeabi_uldivmod.o)
 .debug_frame   0x00000000       0x2c c:/program files (x86)/on semiconductor/ide/arm_tools/bin/../lib/gcc/arm-none-eabi/6.3.1/thumb/v7-m\libgcc.a(_aeabi_uldivmod.o)
 .ARM.attributes
                0x00000000       0x1d c:/program files (x86)/on semiconductor/ide/arm_tools/bin/../lib/gcc/arm-none-eabi/6.3.1/thumb/v7-m\libgcc.a(_aeabi_uldivmod.o)
 .text          0x00000000      0x2dc c:/program files (x86)/on semiconductor/ide/arm_tools/bin/../lib/gcc/arm-none-eabi/6.3.1/thumb/v7-m\libgcc.a(_udivmoddi4.o)
 .data          0x00000000        0x0 c:/program files (x86)/on semiconductor/ide/arm_tools/bin/../lib/gcc/arm-none-eabi/6.3.1/thumb/v7-m\libgcc.a(_udivmoddi4.o)
 .bss           0x00000000        0x0 c:/program files (x86)/on semiconductor/ide/arm_tools/bin/../lib/gcc/arm-none-eabi/6.3.1/thumb/v7-m\libgcc.a(_udivmoddi4.o)
 .ARM.extab     0x00000000        0x0 c:/program files (x86)/on semiconductor/ide/arm_tools/bin/../lib/gcc/arm-none-eabi/6.3.1/thumb/v7-m\libgcc.a(_udivmoddi4.o)
 .ARM.exidx     0x00000000        0x8 c:/program files (x86)/on semiconductor/ide/arm_tools/bin/../lib/gcc/arm-none-eabi/6.3.1/thumb/v7-m\libgcc.a(_udivmoddi4.o)
 .debug_frame   0x00000000       0x34 c:/program files (x86)/on semiconductor/ide/arm_tools/bin/../lib/gcc/arm-none-eabi/6.3.1/thumb/v7-m\libgcc.a(_udivmoddi4.o)
 .ARM.attributes
                0x00000000       0x2d c:/program files (x86)/on semiconductor/ide/arm_tools/bin/../lib/gcc/arm-none-eabi/6.3.1/thumb/v7-m\libgcc.a(_udivmoddi4.o)
 .text          0x00000000        0x4 c:/program files (x86)/on semiconductor/ide/arm_tools/bin/../lib/gcc/arm-none-eabi/6.3.1/thumb/v7-m\libgcc.a(_dvmd_tls.o)
 .data          0x00000000        0x0 c:/program files (x86)/on semiconductor/ide/arm_tools/bin/../lib/gcc/arm-none-eabi/6.3.1/thumb/v7-m\libgcc.a(_dvmd_tls.o)
 .bss           0x00000000        0x0 c:/program files (x86)/on semiconductor/ide/arm_tools/bin/../lib/gcc/arm-none-eabi/6.3.1/thumb/v7-m\libgcc.a(_dvmd_tls.o)
 .ARM.attributes
                0x00000000       0x1d c:/program files (x86)/on semiconductor/ide/arm_tools/bin/../lib/gcc/arm-none-eabi/6.3.1/thumb/v7-m\libgcc.a(_dvmd_tls.o)
 .text          0x00000000        0x0 c:/program files (x86)/on semiconductor/ide/arm_tools/bin/../lib/gcc/arm-none-eabi/6.3.1/../../../../arm-none-eabi/lib/thumb/v7-m\libg_nano.a(lib_a-errno.o)
 .data          0x00000000        0x0 c:/program files (x86)/on semiconductor/ide/arm_tools/bin/../lib/gcc/arm-none-eabi/6.3.1/../../../../arm-none-eabi/lib/thumb/v7-m\libg_nano.a(lib_a-errno.o)
 .bss           0x00000000        0x0 c:/program files (x86)/on semiconductor/ide/arm_tools/bin/../lib/gcc/arm-none-eabi/6.3.1/../../../../arm-none-eabi/lib/thumb/v7-m\libg_nano.a(lib_a-errno.o)
 .text          0x00000000        0x0 c:/program files (x86)/on semiconductor/ide/arm_tools/bin/../lib/gcc/arm-none-eabi/6.3.1/../../../../arm-none-eabi/lib/thumb/v7-m\libg_nano.a(lib_a-impure.o)
 .data          0x00000000        0x0 c:/program files (x86)/on semiconductor/ide/arm_tools/bin/../lib/gcc/arm-none-eabi/6.3.1/../../../../arm-none-eabi/lib/thumb/v7-m\libg_nano.a(lib_a-impure.o)
 .bss           0x00000000        0x0 c:/program files (x86)/on semiconductor/ide/arm_tools/bin/../lib/gcc/arm-none-eabi/6.3.1/../../../../arm-none-eabi/lib/thumb/v7-m\libg_nano.a(lib_a-impure.o)
 .rodata._global_impure_ptr
                0x00000000        0x4 c:/program files (x86)/on semiconductor/ide/arm_tools/bin/../lib/gcc/arm-none-eabi/6.3.1/../../../../arm-none-eabi/lib/thumb/v7-m\libg_nano.a(lib_a-impure.o)
 .text          0x00000000        0x0 c:/program files (x86)/on semiconductor/ide/arm_tools/bin/../lib/gcc/arm-none-eabi/6.3.1/../../../../arm-none-eabi/lib/thumb/v7-m\libg_nano.a(lib_a-malloc.o)
 .data          0x00000000        0x0 c:/program files (x86)/on semiconductor/ide/arm_tools/bin/../lib/gcc/arm-none-eabi/6.3.1/../../../../arm-none-eabi/lib/thumb/v7-m\libg_nano.a(lib_a-malloc.o)
 .bss           0x00000000        0x0 c:/program files (x86)/on semiconductor/ide/arm_tools/bin/../lib/gcc/arm-none-eabi/6.3.1/../../../../arm-none-eabi/lib/thumb/v7-m\libg_nano.a(lib_a-malloc.o)
 .text          0x00000000        0x0 c:/program files (x86)/on semiconductor/ide/arm_tools/bin/../lib/gcc/arm-none-eabi/6.3.1/../../../../arm-none-eabi/lib/thumb/v7-m\libg_nano.a(lib_a-memcmp.o)
 .data          0x00000000        0x0 c:/program files (x86)/on semiconductor/ide/arm_tools/bin/../lib/gcc/arm-none-eabi/6.3.1/../../../../arm-none-eabi/lib/thumb/v7-m\libg_nano.a(lib_a-memcmp.o)
 .bss           0x00000000        0x0 c:/program files (x86)/on semiconductor/ide/arm_tools/bin/../lib/gcc/arm-none-eabi/6.3.1/../../../../arm-none-eabi/lib/thumb/v7-m\libg_nano.a(lib_a-memcmp.o)
 .text          0x00000000        0x0 c:/program files (x86)/on semiconductor/ide/arm_tools/bin/../lib/gcc/arm-none-eabi/6.3.1/../../../../arm-none-eabi/lib/thumb/v7-m\libg_nano.a(lib_a-memcpy-stub.o)
 .data          0x00000000        0x0 c:/program files (x86)/on semiconductor/ide/arm_tools/bin/../lib/gcc/arm-none-eabi/6.3.1/../../../../arm-none-eabi/lib/thumb/v7-m\libg_nano.a(lib_a-memcpy-stub.o)
 .bss           0x00000000        0x0 c:/program files (x86)/on semiconductor/ide/arm_tools/bin/../lib/gcc/arm-none-eabi/6.3.1/../../../../arm-none-eabi/lib/thumb/v7-m\libg_nano.a(lib_a-memcpy-stub.o)
 .text          0x00000000        0x0 c:/program files (x86)/on semiconductor/ide/arm_tools/bin/../lib/gcc/arm-none-eabi/6.3.1/../../../../arm-none-eabi/lib/thumb/v7-m\libg_nano.a(lib_a-memset.o)
 .data          0x00000000        0x0 c:/program files (x86)/on semiconductor/ide/arm_tools/bin/../lib/gcc/arm-none-eabi/6.3.1/../../../../arm-none-eabi/lib/thumb/v7-m\libg_nano.a(lib_a-memset.o)
 .bss           0x00000000        0x0 c:/program files (x86)/on semiconductor/ide/arm_tools/bin/../lib/gcc/arm-none-eabi/6.3.1/../../../../arm-none-eabi/lib/thumb/v7-m\libg_nano.a(lib_a-memset.o)
 .text          0x00000000        0x0 c:/program files (x86)/on semiconductor/ide/arm_tools/bin/../lib/gcc/arm-none-eabi/6.3.1/../../../../arm-none-eabi/lib/thumb/v7-m\libg_nano.a(lib_a-nano-freer.o)
 .data          0x00000000        0x0 c:/program files (x86)/on semiconductor/ide/arm_tools/bin/../lib/gcc/arm-none-eabi/6.3.1/../../../../arm-none-eabi/lib/thumb/v7-m\libg_nano.a(lib_a-nano-freer.o)
 .bss           0x00000000        0x0 c:/program files (x86)/on semiconductor/ide/arm_tools/bin/../lib/gcc/arm-none-eabi/6.3.1/../../../../arm-none-eabi/lib/thumb/v7-m\libg_nano.a(lib_a-nano-freer.o)
 .text          0x00000000        0x0 c:/program files (x86)/on semiconductor/ide/arm_tools/bin/../lib/gcc/arm-none-eabi/6.3.1/../../../../arm-none-eabi/lib/thumb/v7-m\libg_nano.a(lib_a-nano-mallocr.o)
 .data          0x00000000        0x0 c:/program files (x86)/on semiconductor/ide/arm_tools/bin/../lib/gcc/arm-none-eabi/6.3.1/../../../../arm-none-eabi/lib/thumb/v7-m\libg_nano.a(lib_a-nano-mallocr.o)
 .bss           0x00000000        0x0 c:/program files (x86)/on semiconductor/ide/arm_tools/bin/../lib/gcc/arm-none-eabi/6.3.1/../../../../arm-none-eabi/lib/thumb/v7-m\libg_nano.a(lib_a-nano-mallocr.o)
 .text          0x00000000        0x0 c:/program files (x86)/on semiconductor/ide/arm_tools/bin/../lib/gcc/arm-none-eabi/6.3.1/../../../../arm-none-eabi/lib/thumb/v7-m\libg_nano.a(lib_a-rand.o)
 .data          0x00000000        0x0 c:/program files (x86)/on semiconductor/ide/arm_tools/bin/../lib/gcc/arm-none-eabi/6.3.1/../../../../arm-none-eabi/lib/thumb/v7-m\libg_nano.a(lib_a-rand.o)
 .bss           0x00000000        0x0 c:/program files (x86)/on semiconductor/ide/arm_tools/bin/../lib/gcc/arm-none-eabi/6.3.1/../../../../arm-none-eabi/lib/thumb/v7-m\libg_nano.a(lib_a-rand.o)
 .text          0x00000000        0x0 c:/program files (x86)/on semiconductor/ide/arm_tools/bin/../lib/gcc/arm-none-eabi/6.3.1/../../../../arm-none-eabi/lib/thumb/v7-m\libg_nano.a(lib_a-sbrkr.o)
 .data          0x00000000        0x0 c:/program files (x86)/on semiconductor/ide/arm_tools/bin/../lib/gcc/arm-none-eabi/6.3.1/../../../../arm-none-eabi/lib/thumb/v7-m\libg_nano.a(lib_a-sbrkr.o)
 .bss           0x00000000        0x0 c:/program files (x86)/on semiconductor/ide/arm_tools/bin/../lib/gcc/arm-none-eabi/6.3.1/../../../../arm-none-eabi/lib/thumb/v7-m\libg_nano.a(lib_a-sbrkr.o)
 .text          0x00000000        0x0 c:/program files (x86)/on semiconductor/ide/arm_tools/bin/../lib/gcc/arm-none-eabi/6.3.1/../../../../arm-none-eabi/lib/thumb/v7-m\libg_nano.a(lib_a-mlock.o)
 .data          0x00000000        0x0 c:/program files (x86)/on semiconductor/ide/arm_tools/bin/../lib/gcc/arm-none-eabi/6.3.1/../../../../arm-none-eabi/lib/thumb/v7-m\libg_nano.a(lib_a-mlock.o)
 .bss           0x00000000        0x0 c:/program files (x86)/on semiconductor/ide/arm_tools/bin/../lib/gcc/arm-none-eabi/6.3.1/../../../../arm-none-eabi/lib/thumb/v7-m\libg_nano.a(lib_a-mlock.o)
 .text          0x00000000        0x0 c:/program files (x86)/on semiconductor/ide/arm_tools/bin/../lib/gcc/arm-none-eabi/6.3.1/../../../../arm-none-eabi/lib/thumb/v7-m\libg_nano.a(lib_a-reent.o)
 .data          0x00000000        0x0 c:/program files (x86)/on semiconductor/ide/arm_tools/bin/../lib/gcc/arm-none-eabi/6.3.1/../../../../arm-none-eabi/lib/thumb/v7-m\libg_nano.a(lib_a-reent.o)
 .bss           0x00000000        0x0 c:/program files (x86)/on semiconductor/ide/arm_tools/bin/../lib/gcc/arm-none-eabi/6.3.1/../../../../arm-none-eabi/lib/thumb/v7-m\libg_nano.a(lib_a-reent.o)
 .text.cleanup_glue
                0x00000000       0x1a c:/program files (x86)/on semiconductor/ide/arm_tools/bin/../lib/gcc/arm-none-eabi/6.3.1/../../../../arm-none-eabi/lib/thumb/v7-m\libg_nano.a(lib_a-reent.o)
 .text._reclaim_reent
                0x00000000       0xb8 c:/program files (x86)/on semiconductor/ide/arm_tools/bin/../lib/gcc/arm-none-eabi/6.3.1/../../../../arm-none-eabi/lib/thumb/v7-m\libg_nano.a(lib_a-reent.o)

Memory Configuration

Name             Origin             Length             Attributes
ROM              0x00000000         0x00001000         r
FLASH            0x00100000         0x0005f000         xrw
PRAM             0x00200000         0x00008000         xrw
DRAM             0x20000000         0x00008000         xrw
DRAM_DSP         0x20008000         0x0000a000         xrw
DRAM_BB          0x20012000         0x00004000         xrw
*default*        0x00000000         0xffffffff

Linker script and memory map

START GROUP
LOAD ./code/app_init.o
LOAD ./code/app_process.o
LOAD ./code/ble_bass.o
LOAD ./code/ble_custom.o
LOAD ./code/ble_diss.o
LOAD ./code/ble_std.o
LOAD ./code/uart.o
LOAD ./RTE/Device/stubprf.o
LOAD ./app.o
LOAD C:/Users/h274519/ON_Semiconductor/ONSemiconductor/RSL10/3.0.534/lib/ble_core/Release/libblelib.a
LOAD C:/Users/h274519/ON_Semiconductor/ONSemiconductor/RSL10/3.0.534/lib/ble_core/Release/libkelib.a
LOAD C:/Users/h274519/ON_Semiconductor/ONSemiconductor/RSL10/3.0.534/lib/ble_profiles/Release/libbass.a
LOAD C:/Users/h274519/ON_Semiconductor/ONSemiconductor/RSL10/3.0.534/lib/Release/libsyslib.a
LOAD C:/Users/h274519/ON_Semiconductor/ONSemiconductor/RSL10/3.0.534/lib/Release/libcmsis.a
LOAD C:\Users\h274519\ON_Semiconductor\ONSemiconductor\RSL10\3.0.534\lib\ble_profiles\Release\libDISS.a
END GROUP
START GROUP
LOAD c:/program files (x86)/on semiconductor/ide/arm_tools/bin/../lib/gcc/arm-none-eabi/6.3.1/thumb/v7-m\libgcc.a
LOAD c:/program files (x86)/on semiconductor/ide/arm_tools/bin/../lib/gcc/arm-none-eabi/6.3.1/../../../../arm-none-eabi/lib/thumb/v7-m\libg_nano.a
LOAD c:/program files (x86)/on semiconductor/ide/arm_tools/bin/../lib/gcc/arm-none-eabi/6.3.1/../../../../arm-none-eabi/lib/thumb/v7-m\libc_nano.a
END GROUP
START GROUP
LOAD c:/program files (x86)/on semiconductor/ide/arm_tools/bin/../lib/gcc/arm-none-eabi/6.3.1/thumb/v7-m\libgcc.a
LOAD c:/program files (x86)/on semiconductor/ide/arm_tools/bin/../lib/gcc/arm-none-eabi/6.3.1/../../../../arm-none-eabi/lib/thumb/v7-m\libc_nano.a
END GROUP
                0x20008000                __stack = (ORIGIN (DRAM) + LENGTH (DRAM))
                [!provide]                PROVIDE (__stack, __stack)
                0x00000400                __Main_Stack_Size = 0x400
                [!provide]                PROVIDE (_Main_Stack_Size, __Main_Stack_Size)
                0x20007c00                __Main_Stack_Limit = (__stack - __Main_Stack_Size)
                [!provide]                PROVIDE (_Main_Stack_Limit, __Main_Stack_Limit)
                0x20004e9c                PROVIDE (__Heap_Begin__, __noinit_end__)
                0x20007c00                PROVIDE (__Heap_Limit__, (__stack - __Main_Stack_Size))
                0xe000ed08                __VTOR = 0xe000ed08

.text           0x00100000    0x22e0c
                0x00100000                . = ALIGN (0x4)
 *(.interrupt_vector)
 .interrupt_vector
                0x00100000      0x164 C:/Users/h274519/ON_Semiconductor/ONSemiconductor/RSL10/3.0.534/lib/Release/libcmsis.a(startup_rsl10.o)
                0x00100000                ISR_Vector_Table
 *(.reset)
 .reset         0x00100164       0x18 C:/Users/h274519/ON_Semiconductor/ONSemiconductor/RSL10/3.0.534/lib/Release/libcmsis.a(startup_rsl10.o)
                0x00100164                Reset_Handler
                0x0010017c                . = ALIGN (0x4)
                0x0010017c                PROVIDE (__preinit_array_start__, .)
 *(.preinit_array_sysinit .preinit_array_sysinit.*)
 *(.preinit_array_platform .preinit_array_platform.*)
 *(.preinit_array .preinit_array.*)
                0x0010017c                PROVIDE (__preinit_array_end__, .)
                0x0010017c                . = ALIGN (0x4)
                0x0010017c                PROVIDE (__init_array_start__, .)
 *(SORT(.init_array.*))
 *(.init_array)
                0x0010017c                PROVIDE (__init_array_end__, .)
                0x0010017c                . = ALIGN (0x4)
 *(.text .text.*)
 .text.Sys_DIO_Config
                0x0010017c       0x24 ./code/app_init.o
 .text.Sys_Clocks_SystemClkConfig
                0x001001a0       0x34 ./code/app_init.o
 .text.Sys_NVIC_DisableAllInt
                0x001001d4       0x30 ./code/app_init.o
 .text.Sys_NVIC_ClearAllPendingInt
                0x00100204       0x30 ./code/app_init.o
 .text.Sys_ADC_Set_Config
                0x00100234       0x20 ./code/app_init.o
 .text.Sys_ADC_InputSelectConfig
                0x00100254       0x24 ./code/app_init.o
 .text.App_Initialize
                0x00100278      0x158 ./code/app_init.o
                0x00100278                App_Initialize
 .text.App_Env_Initialize
                0x001003d0       0x30 ./code/app_init.o
                0x001003d0                App_Env_Initialize
 .text.Sys_GPIO_Set_High
                0x00100400       0x3c ./code/app_process.o
 .text.Sys_GPIO_Set_Low
                0x0010043c       0x3c ./code/app_process.o
 .text.Sys_GPIO_Toggle
                0x00100478       0x3c ./code/app_process.o
 .text.APP_Timer
                0x001004b4       0xf0 ./code/app_process.o
                0x001004b4                APP_Timer
 .text.LED_Timer
                0x001005a4       0x58 ./code/app_process.o
                0x001005a4                LED_Timer
 .text.Msg_Handler
                0x001005fc       0x24 ./code/app_process.o
                0x001005fc                Msg_Handler
 .text.Bass_Env_Initialize
                0x00100620       0x18 ./code/ble_bass.o
                0x00100620                Bass_Env_Initialize
 .text.Batt_ServiceAdd_Server
                0x00100638       0x74 ./code/ble_bass.o
                0x00100638                Batt_ServiceAdd_Server
 .text.Batt_ServiceEnable_Server
                0x001006ac       0x56 ./code/ble_bass.o
                0x001006ac                Batt_ServiceEnable_Server
 .text.Batt_LevelUpdateSend
                0x00100702       0x52 ./code/ble_bass.o
                0x00100702                Batt_LevelUpdateSend
 .text.Batt_LevelNtfCfgInd
                0x00100754       0x30 ./code/ble_bass.o
                0x00100754                Batt_LevelNtfCfgInd
 .text.Batt_EnableRsp_Server
                0x00100784       0x38 ./code/ble_bass.o
                0x00100784                Batt_EnableRsp_Server
 .text.CustomService_Env_Initialize
                0x001007bc       0x30 ./code/ble_custom.o
                0x001007bc                CustomService_Env_Initialize
 .text.CustomService_ServiceAdd
                0x001007ec       0xc0 ./code/ble_custom.o
                0x001007ec                CustomService_ServiceAdd
 .text.GATTM_AddSvcRsp
                0x001008ac       0x4c ./code/ble_custom.o
                0x001008ac                GATTM_AddSvcRsp
 .text.GATTC_ReadReqInd
                0x001008f8      0x138 ./code/ble_custom.o
                0x001008f8                GATTC_ReadReqInd
 .text.GATTC_WriteReqInd
                0x00100a30      0x1b4 ./code/ble_custom.o
                0x00100a30                GATTC_WriteReqInd
 .text.CustomService_SendNotification
                0x00100be4       0x8c ./code/ble_custom.o
                0x00100be4                CustomService_SendNotification
 .text.GATTC_CmpEvt
                0x00100c70       0x50 ./code/ble_custom.o
                0x00100c70                GATTC_CmpEvt
 .text.Diss_Env_Initialize
                0x00100cc0       0x18 ./code/ble_diss.o
                0x00100cc0                Diss_Env_Initialize
 .text.DeviceInfo_ValueReqInd
                0x00100cd8      0x11c ./code/ble_diss.o
                0x00100cd8                DeviceInfo_ValueReqInd
 .text.DeviceInfo_ServiceAdd
                0x00100df4       0x50 ./code/ble_diss.o
                0x00100df4                DeviceInfo_ServiceAdd
 .text.__NVIC_EnableIRQ
                0x00100e44       0x38 ./code/ble_std.o
 .text.Device_Param_Prepare
                0x00100e7c       0x48 ./code/ble_std.o
                0x00100e7c                Device_Param_Prepare
 .text.BLE_Initialize
                0x00100ec4      0x17c ./code/ble_std.o
                0x00100ec4                BLE_Initialize
 .text.Service_Add
                0x00101040       0x40 ./code/ble_std.o
                0x00101040                Service_Add
 .text.Advertising_Start
                0x00101080      0x17c ./code/ble_std.o
                0x00101080                Advertising_Start
 .text.GAPM_ProfileAddedInd
                0x001011fc       0x48 ./code/ble_std.o
                0x001011fc                GAPM_ProfileAddedInd
 .text.GAPM_CmpEvt
                0x00101244       0xbc ./code/ble_std.o
                0x00101244                GAPM_CmpEvt
 .text.GAPC_GetDevInfoReqInd
                0x00101300       0xac ./code/ble_std.o
                0x00101300                GAPC_GetDevInfoReqInd
 .text.GAPC_ConnectionReqInd
                0x001013ac       0xc8 ./code/ble_std.o
                0x001013ac                GAPC_ConnectionReqInd
 .text.GAPC_CmpEvt
                0x00101474       0x24 ./code/ble_std.o
                0x00101474                GAPC_CmpEvt
 .text.GAPC_DisconnectInd
                0x00101498       0x3c ./code/ble_std.o
                0x00101498                GAPC_DisconnectInd
 .text.GAPC_ParamUpdatedInd
                0x001014d4       0x40 ./code/ble_std.o
                0x001014d4                GAPC_ParamUpdatedInd
 .text.GAPC_ParamUpdateReqInd
                0x00101514       0x60 ./code/ble_std.o
                0x00101514                GAPC_ParamUpdateReqInd
 .text.BLE_SetServiceState
                0x00101574       0x48 ./code/ble_std.o
                0x00101574                BLE_SetServiceState
 .text.Service_Enable
                0x001015bc       0x50 ./code/ble_std.o
                0x001015bc                Service_Enable
 .text.Connection_SetPktLength
                0x0010160c       0x54 ./code/ble_std.o
                0x0010160c                Connection_SetPktLength
 .text.Connection_ExchangeMTUCmd
                0x00101660       0x40 ./code/ble_std.o
                0x00101660                Connection_ExchangeMTUCmd
 .text.Connection_SetPHY
                0x001016a0       0x54 ./code/ble_std.o
                0x001016a0                Connection_SetPHY
 .text.__NVIC_EnableIRQ
                0x001016f4       0x38 ./code/uart.o
 .text.Sys_DIO_Config
                0x0010172c       0x24 ./code/uart.o
 .text.Sys_DMA_Get_ChannelStatus
                0x00101750       0x24 ./code/uart.o
 .text.Sys_DMA_ClearChannelStatus
                0x00101774       0x24 ./code/uart.o
 .text.Sys_DMA_ChannelDisable
                0x00101798       0x22 ./code/uart.o
 *fill*         0x001017ba        0x2 
 .text.Sys_UART_DIOConfig
                0x001017bc       0x3c ./code/uart.o
 .text.DMA1_IRQHandler
                0x001017f8        0xc ./code/uart.o
                0x001017f8                DMA1_IRQHandler
 .text.UART_Initialize
                0x00101804       0x80 ./code/uart.o
                0x00101804                UART_Initialize
 .text.UART_EmptyRXBuffer
                0x00101884      0x188 ./code/uart.o
                0x00101884                UART_EmptyRXBuffer
 .text.UART_FillTXBuffer
                0x00101a0c      0x11c ./code/uart.o
                0x00101a0c                UART_FillTXBuffer
 .text.createNode
                0x00101b28       0x48 ./code/uart.o
                0x00101b28                createNode
 .text.removeNode
                0x00101b70       0x22 ./code/uart.o
                0x00101b70                removeNode
 *fill*         0x00101b92        0x2 
 .text.UART_Timer
                0x00101b94       0x38 ./code/uart.o
                0x00101b94                UART_Timer
 .text.htpt_prf_itf_get
                0x00101bcc        0xe ./RTE/Device/stubprf.o
                0x00101bcc                htpt_prf_itf_get
 .text.htpc_prf_itf_get
                0x00101bda        0xe ./RTE/Device/stubprf.o
                0x00101bda                htpc_prf_itf_get
 .text.disc_prf_itf_get
                0x00101be8        0xe ./RTE/Device/stubprf.o
                0x00101be8                disc_prf_itf_get
 .text.blps_prf_itf_get
                0x00101bf6        0xe ./RTE/Device/stubprf.o
                0x00101bf6                blps_prf_itf_get
 .text.blpc_prf_itf_get
                0x00101c04        0xe ./RTE/Device/stubprf.o
                0x00101c04                blpc_prf_itf_get
 .text.tips_prf_itf_get
                0x00101c12        0xe ./RTE/Device/stubprf.o
                0x00101c12                tips_prf_itf_get
 .text.tipc_prf_itf_get
                0x00101c20        0xe ./RTE/Device/stubprf.o
                0x00101c20                tipc_prf_itf_get
 .text.hrps_prf_itf_get
                0x00101c2e        0xe ./RTE/Device/stubprf.o
                0x00101c2e                hrps_prf_itf_get
 .text.hrpc_prf_itf_get
                0x00101c3c        0xe ./RTE/Device/stubprf.o
                0x00101c3c                hrpc_prf_itf_get
 .text.findl_prf_itf_get
                0x00101c4a        0xe ./RTE/Device/stubprf.o
                0x00101c4a                findl_prf_itf_get
 .text.findt_prf_itf_get
                0x00101c58        0xe ./RTE/Device/stubprf.o
                0x00101c58                findt_prf_itf_get
 .text.proxm_prf_itf_get
                0x00101c66        0xe ./RTE/Device/stubprf.o
                0x00101c66                proxm_prf_itf_get
 .text.proxr_prf_itf_get
                0x00101c74        0xe ./RTE/Device/stubprf.o
                0x00101c74                proxr_prf_itf_get
 .text.scppc_prf_itf_get
                0x00101c82        0xe ./RTE/Device/stubprf.o
                0x00101c82                scppc_prf_itf_get
 .text.scpps_prf_itf_get
                0x00101c90        0xe ./RTE/Device/stubprf.o
                0x00101c90                scpps_prf_itf_get
 .text.basc_prf_itf_get
                0x00101c9e        0xe ./RTE/Device/stubprf.o
                0x00101c9e                basc_prf_itf_get
 .text.hogpd_prf_itf_get
                0x00101cac        0xe ./RTE/Device/stubprf.o
                0x00101cac                hogpd_prf_itf_get
 .text.hogpbh_prf_itf_get
                0x00101cba        0xe ./RTE/Device/stubprf.o
                0x00101cba                hogpbh_prf_itf_get
 .text.hogprh_prf_itf_get
                0x00101cc8        0xe ./RTE/Device/stubprf.o
                0x00101cc8                hogprh_prf_itf_get
 .text.glpc_prf_itf_get
                0x00101cd6        0xe ./RTE/Device/stubprf.o
                0x00101cd6                glpc_prf_itf_get
 .text.glps_prf_itf_get
                0x00101ce4        0xe ./RTE/Device/stubprf.o
                0x00101ce4                glps_prf_itf_get
 .text.rscpc_prf_itf_get
                0x00101cf2        0xe ./RTE/Device/stubprf.o
                0x00101cf2                rscpc_prf_itf_get
 .text.rscps_prf_itf_get
                0x00101d00        0xe ./RTE/Device/stubprf.o
                0x00101d00                rscps_prf_itf_get
 .text.cscpc_prf_itf_get
                0x00101d0e        0xe ./RTE/Device/stubprf.o
                0x00101d0e                cscpc_prf_itf_get
 .text.cscps_prf_itf_get
                0x00101d1c        0xe ./RTE/Device/stubprf.o
                0x00101d1c                cscps_prf_itf_get
 .text.anpc_prf_itf_get
                0x00101d2a        0xe ./RTE/Device/stubprf.o
                0x00101d2a                anpc_prf_itf_get
 .text.anps_prf_itf_get
                0x00101d38        0xe ./RTE/Device/stubprf.o
                0x00101d38                anps_prf_itf_get
 .text.paspc_prf_itf_get
                0x00101d46        0xe ./RTE/Device/stubprf.o
                0x00101d46                paspc_prf_itf_get
 .text.pasps_prf_itf_get
                0x00101d54        0xe ./RTE/Device/stubprf.o
                0x00101d54                pasps_prf_itf_get
 .text.cppc_prf_itf_get
                0x00101d62        0xe ./RTE/Device/stubprf.o
                0x00101d62                cppc_prf_itf_get
 .text.cpps_prf_itf_get
                0x00101d70        0xe ./RTE/Device/stubprf.o
                0x00101d70                cpps_prf_itf_get
 .text.lanc_prf_itf_get
                0x00101d7e        0xe ./RTE/Device/stubprf.o
                0x00101d7e                lanc_prf_itf_get
 .text.lans_prf_itf_get
                0x00101d8c        0xe ./RTE/Device/stubprf.o
                0x00101d8c                lans_prf_itf_get
 .text.wpts_prf_itf_get
                0x00101d9a        0xe ./RTE/Device/stubprf.o
                0x00101d9a                wpts_prf_itf_get
 .text.wptc_prf_itf_get
                0x00101da8        0xe ./RTE/Device/stubprf.o
                0x00101da8                wptc_prf_itf_get
 *fill*         0x00101db6        0x2 
 .text.Sys_Watchdog_Refresh
                0x00101db8       0x1c ./app.o
 .text.main     0x00101dd4       0xf0 ./app.o
                0x00101dd4                main
 .text.rwip_reset
                0x00101ec4       0x34 C:/Users/h274519/ON_Semiconductor/ONSemiconductor/RSL10/3.0.534/lib/ble_core/Release/libblelib.a(rwip.o)
                0x00101ec4                rwip_reset
 .text.rwip_prevent_sleep_set
                0x00101ef8       0x14 C:/Users/h274519/ON_Semiconductor/ONSemiconductor/RSL10/3.0.534/lib/ble_core/Release/libblelib.a(rwip.o)
                0x00101ef8                rwip_prevent_sleep_set
 .text.rwip_wakeup
                0x00101f0c       0x10 C:/Users/h274519/ON_Semiconductor/ONSemiconductor/RSL10/3.0.534/lib/ble_core/Release/libblelib.a(rwip.o)
                0x00101f0c                rwip_wakeup
 .text.rwip_prevent_sleep_clear
                0x00101f1c       0x14 C:/Users/h274519/ON_Semiconductor/ONSemiconductor/RSL10/3.0.534/lib/ble_core/Release/libblelib.a(rwip.o)
                0x00101f1c                rwip_prevent_sleep_clear
 .text.rwip_wakeup_end
                0x00101f30       0x24 C:/Users/h274519/ON_Semiconductor/ONSemiconductor/RSL10/3.0.534/lib/ble_core/Release/libblelib.a(rwip.o)
                0x00101f30                rwip_wakeup_end
 .text.rwip_sleep_lpcycles_2_us
                0x00101f54       0x54 C:/Users/h274519/ON_Semiconductor/ONSemiconductor/RSL10/3.0.534/lib/ble_core/Release/libblelib.a(rwip.o)
                0x00101f54                rwip_sleep_lpcycles_2_us
 .text.rwip_us_2_lpcycles
                0x00101fa8       0x24 C:/Users/h274519/ON_Semiconductor/ONSemiconductor/RSL10/3.0.534/lib/ble_core/Release/libblelib.a(rwip.o)
                0x00101fa8                rwip_us_2_lpcycles
 .text.rwip_wakeup_delay_set
                0x00101fcc       0x2c C:/Users/h274519/ON_Semiconductor/ONSemiconductor/RSL10/3.0.534/lib/ble_core/Release/libblelib.a(rwip.o)
                0x00101fcc                rwip_wakeup_delay_set
 .text.BLE_InitNoTL
                0x00101ff8       0x8c C:/Users/h274519/ON_Semiconductor/ONSemiconductor/RSL10/3.0.534/lib/ble_core/Release/libblelib.a(rwip.o)
                0x00101ff8                BLE_InitNoTL
 .text.rwble_init
                0x00102084       0x28 C:/Users/h274519/ON_Semiconductor/ONSemiconductor/RSL10/3.0.534/lib/ble_core/Release/libblelib.a(rwble.o)
                0x00102084                rwble_init
 .text.rwble_reset
                0x001020ac       0x5c C:/Users/h274519/ON_Semiconductor/ONSemiconductor/RSL10/3.0.534/lib/ble_core/Release/libblelib.a(rwble.o)
                0x001020ac                rwble_reset
 .text.rwble_sleep_check
                0x00102108       0x10 C:/Users/h274519/ON_Semiconductor/ONSemiconductor/RSL10/3.0.534/lib/ble_core/Release/libblelib.a(rwble.o)
                0x00102108                rwble_sleep_check
 .text.rwble_isr
                0x00102118       0xb8 C:/Users/h274519/ON_Semiconductor/ONSemiconductor/RSL10/3.0.534/lib/ble_core/Release/libblelib.a(rwble.o)
                0x00102118                BLE_CSCNT_IRQHandler
                0x00102118                BLE_SW_IRQHandler
                0x00102118                BLE_AUDIO0_IRQHandler
                0x00102118                BLE_SLP_IRQHandler
                0x00102118                BLE_RX_IRQHandler
                0x00102118                rwble_isr
                0x00102118                BLE_AUDIO2_IRQHandler
                0x00102118                BLE_AUDIO1_IRQHandler
                0x00102118                BLE_ERROR_IRQHandler
                0x00102118                BLE_EVENT_IRQHandler
                0x00102118                BLE_CRYPT_IRQHandler
                0x00102118                BLE_FINETGTIM_IRQHandler
 .text.rf_atl_reg_rd
                0x001021d0       0x18 C:/Users/h274519/ON_Semiconductor/ONSemiconductor/RSL10/3.0.534/lib/ble_core/Release/libblelib.a(rf_atlas.o)
 .text.rf_atl_reg_wr
                0x001021e8        0xc C:/Users/h274519/ON_Semiconductor/ONSemiconductor/RSL10/3.0.534/lib/ble_core/Release/libblelib.a(rf_atlas.o)
 .text.rf_reset
                0x001021f4        0x2 C:/Users/h274519/ON_Semiconductor/ONSemiconductor/RSL10/3.0.534/lib/ble_core/Release/libblelib.a(rf_atlas.o)
 .text.rf_force_agc_enable
                0x001021f6        0x2 C:/Users/h274519/ON_Semiconductor/ONSemiconductor/RSL10/3.0.534/lib/ble_core/Release/libblelib.a(rf_atlas.o)
 .text.rf_txpwr_dbm_get
                0x001021f8        0x4 C:/Users/h274519/ON_Semiconductor/ONSemiconductor/RSL10/3.0.534/lib/ble_core/Release/libblelib.a(rf_atlas.o)
 .text.rf_sleep
                0x001021fc       0x10 C:/Users/h274519/ON_Semiconductor/ONSemiconductor/RSL10/3.0.534/lib/ble_core/Release/libblelib.a(rf_atlas.o)
 *fill*         0x0010220c        0x4 
 .text.rf_rssi_convert
                0x00102210       0x34 C:/Users/h274519/ON_Semiconductor/ONSemiconductor/RSL10/3.0.534/lib/ble_core/Release/libblelib.a(rf_atlas.o)
 .text.rf_init  0x00102244      0x488 C:/Users/h274519/ON_Semiconductor/ONSemiconductor/RSL10/3.0.534/lib/ble_core/Release/libblelib.a(rf_atlas.o)
                0x00102244                rf_init
 .text.prf_itf_get
                0x001026cc       0xd4 C:/Users/h274519/ON_Semiconductor/ONSemiconductor/RSL10/3.0.534/lib/ble_core/Release/libblelib.a(prf-prf_utils.o)
 .text.prf_init
                0x001027a0       0x64 C:/Users/h274519/ON_Semiconductor/ONSemiconductor/RSL10/3.0.534/lib/ble_core/Release/libblelib.a(prf-prf_utils.o)
                0x001027a0                prf_init
 .text.prf_add_profile
                0x00102804       0x6c C:/Users/h274519/ON_Semiconductor/ONSemiconductor/RSL10/3.0.534/lib/ble_core/Release/libblelib.a(prf-prf_utils.o)
                0x00102804                prf_add_profile
 .text.prf_create
                0x00102870       0x28 C:/Users/h274519/ON_Semiconductor/ONSemiconductor/RSL10/3.0.534/lib/ble_core/Release/libblelib.a(prf-prf_utils.o)
                0x00102870                prf_create
 .text.prf_cleanup
                0x00102898       0x34 C:/Users/h274519/ON_Semiconductor/ONSemiconductor/RSL10/3.0.534/lib/ble_core/Release/libblelib.a(prf-prf_utils.o)
                0x00102898                prf_cleanup
 .text.prf_env_get
                0x001028cc       0x24 C:/Users/h274519/ON_Semiconductor/ONSemiconductor/RSL10/3.0.534/lib/ble_core/Release/libblelib.a(prf-prf_utils.o)
                0x001028cc                prf_env_get
 .text.prf_src_task_get
                0x001028f0       0x10 C:/Users/h274519/ON_Semiconductor/ONSemiconductor/RSL10/3.0.534/lib/ble_core/Release/libblelib.a(prf-prf_utils.o)
                0x001028f0                prf_src_task_get
 .text.prf_dst_task_get
                0x00102900       0x10 C:/Users/h274519/ON_Semiconductor/ONSemiconductor/RSL10/3.0.534/lib/ble_core/Release/libblelib.a(prf-prf_utils.o)
                0x00102900                prf_dst_task_get
 .text.prf_pack_char_pres_fmt
                0x00102910       0x1e C:/Users/h274519/ON_Semiconductor/ONSemiconductor/RSL10/3.0.534/lib/ble_core/Release/libblelib.a(prf-prf_utils.o)
                0x00102910                prf_pack_char_pres_fmt
 *fill*         0x0010292e        0x2 
 .text.lld_evt_winsize_change
                0x00102930       0xac C:/Users/h274519/ON_Semiconductor/ONSemiconductor/RSL10/3.0.534/lib/ble_core/Release/libblelib.a(lld_evt.o)
 .text.lld_evt_slave_time_compute
                0x001029dc       0xa4 C:/Users/h274519/ON_Semiconductor/ONSemiconductor/RSL10/3.0.534/lib/ble_core/Release/libblelib.a(lld_evt.o)
 .text.lld_evt_prevent_stop
                0x00102a80        0x2 C:/Users/h274519/ON_Semiconductor/ONSemiconductor/RSL10/3.0.534/lib/ble_core/Release/libblelib.a(lld_evt.o)
                0x00102a80                lld_evt_prevent_stop
 *fill*         0x00102a82        0x2 
 .text.lld_evt_deferred_elt_push
                0x00102a84       0x28 C:/Users/h274519/ON_Semiconductor/ONSemiconductor/RSL10/3.0.534/lib/ble_core/Release/libblelib.a(lld_evt.o)
 .text.lld_evt_elt_wait_insert
                0x00102aac       0x20 C:/Users/h274519/ON_Semiconductor/ONSemiconductor/RSL10/3.0.534/lib/ble_core/Release/libblelib.a(lld_evt.o)
 .text.lld_evt_deferred_elt_pop
                0x00102acc       0x2c C:/Users/h274519/ON_Semiconductor/ONSemiconductor/RSL10/3.0.534/lib/ble_core/Release/libblelib.a(lld_evt.o)
 .text.lld_evt_get_next_free_slot
                0x00102af8       0x38 C:/Users/h274519/ON_Semiconductor/ONSemiconductor/RSL10/3.0.534/lib/ble_core/Release/libblelib.a(lld_evt.o)
 .text.lld_evt_elt_wait_get
                0x00102b30       0x34 C:/Users/h274519/ON_Semiconductor/ONSemiconductor/RSL10/3.0.534/lib/ble_core/Release/libblelib.a(lld_evt.o)
 .text.lld_evt_schedule
                0x00102b64      0x150 C:/Users/h274519/ON_Semiconductor/ONSemiconductor/RSL10/3.0.534/lib/ble_core/Release/libblelib.a(lld_evt.o)
                0x00102b64                lld_evt_schedule
 .text.lld_evt_delete_elt_push
                0x00102cb4       0x44 C:/Users/h274519/ON_Semiconductor/ONSemiconductor/RSL10/3.0.534/lib/ble_core/Release/libblelib.a(lld_evt.o)
                0x00102cb4                lld_evt_delete_elt_push
 .text.lld_evt_deffered_elt_handler
                0x00102cf8       0xf4 C:/Users/h274519/ON_Semiconductor/ONSemiconductor/RSL10/3.0.534/lib/ble_core/Release/libblelib.a(lld_evt.o)
                0x00102cf8                lld_evt_deffered_elt_handler
 .text.lld_evt_channel_next
                0x00102dec       0x40 C:/Users/h274519/ON_Semiconductor/ONSemiconductor/RSL10/3.0.534/lib/ble_core/Release/libblelib.a(lld_evt.o)
                0x00102dec                lld_evt_channel_next
 .text.lld_evt_init
                0x00102e2c      0x128 C:/Users/h274519/ON_Semiconductor/ONSemiconductor/RSL10/3.0.534/lib/ble_core/Release/libblelib.a(lld_evt.o)
                0x00102e2c                lld_evt_init
 .text.lld_evt_init_evt
                0x00102f54       0x4c C:/Users/h274519/ON_Semiconductor/ONSemiconductor/RSL10/3.0.534/lib/ble_core/Release/libblelib.a(lld_evt.o)
                0x00102f54                lld_evt_init_evt
 .text.lld_evt_elt_delete
                0x00102fa0       0xd8 C:/Users/h274519/ON_Semiconductor/ONSemiconductor/RSL10/3.0.534/lib/ble_core/Release/libblelib.a(lld_evt.o)
                0x00102fa0                lld_evt_elt_delete
 .text.lld_evt_delete_elt_handler
                0x00103078       0x64 C:/Users/h274519/ON_Semiconductor/ONSemiconductor/RSL10/3.0.534/lib/ble_core/Release/libblelib.a(lld_evt.o)
 .text.lld_evt_drift_compute
                0x001030dc       0x38 C:/Users/h274519/ON_Semiconductor/ONSemiconductor/RSL10/3.0.534/lib/ble_core/Release/libblelib.a(lld_evt.o)
                0x001030dc                lld_evt_drift_compute
 .text.lld_evt_rxwin_compute
                0x00103114       0x4c C:/Users/h274519/ON_Semiconductor/ONSemiconductor/RSL10/3.0.534/lib/ble_core/Release/libblelib.a(lld_evt.o)
 .text.lld_evt_restart
                0x00103160      0x84c C:/Users/h274519/ON_Semiconductor/ONSemiconductor/RSL10/3.0.534/lib/ble_core/Release/libblelib.a(lld_evt.o)
                0x00103160                lld_evt_restart
 .text.lld_evt_elt_insert
                0x001039ac       0x48 C:/Users/h274519/ON_Semiconductor/ONSemiconductor/RSL10/3.0.534/lib/ble_core/Release/libblelib.a(lld_evt.o)
                0x001039ac                lld_evt_elt_insert
 .text.lld_evt_canceled
                0x001039f4       0x3e C:/Users/h274519/ON_Semiconductor/ONSemiconductor/RSL10/3.0.534/lib/ble_core/Release/libblelib.a(lld_evt.o)
                0x001039f4                lld_evt_canceled
 *fill*         0x00103a32        0x2 
 .text.lld_evt_schedule_next
                0x00103a34      0x1a0 C:/Users/h274519/ON_Semiconductor/ONSemiconductor/RSL10/3.0.534/lib/ble_core/Release/libblelib.a(lld_evt.o)
                0x00103a34                lld_evt_schedule_next
 .text.lld_evt_scan_create
                0x00103bd4       0x88 C:/Users/h274519/ON_Semiconductor/ONSemiconductor/RSL10/3.0.534/lib/ble_core/Release/libblelib.a(lld_evt.o)
                0x00103bd4                lld_evt_scan_create
 .text.lld_evt_move_to_master
                0x00103c5c      0x170 C:/Users/h274519/ON_Semiconductor/ONSemiconductor/RSL10/3.0.534/lib/ble_core/Release/libblelib.a(lld_evt.o)
                0x00103c5c                lld_evt_move_to_master
 .text.lld_evt_update_create
                0x00103dcc      0x12c C:/Users/h274519/ON_Semiconductor/ONSemiconductor/RSL10/3.0.534/lib/ble_core/Release/libblelib.a(lld_evt.o)
                0x00103dcc                lld_evt_update_create
 .text.lld_evt_move_to_slave
                0x00103ef8      0x344 C:/Users/h274519/ON_Semiconductor/ONSemiconductor/RSL10/3.0.534/lib/ble_core/Release/libblelib.a(lld_evt.o)
                0x00103ef8                lld_evt_move_to_slave
 .text.lld_evt_slave_update
                0x0010423c      0x158 C:/Users/h274519/ON_Semiconductor/ONSemiconductor/RSL10/3.0.534/lib/ble_core/Release/libblelib.a(lld_evt.o)
                0x0010423c                lld_evt_slave_update
 .text.lld_evt_adv_create
                0x00104394       0x88 C:/Users/h274519/ON_Semiconductor/ONSemiconductor/RSL10/3.0.534/lib/ble_core/Release/libblelib.a(lld_evt.o)
                0x00104394                lld_evt_adv_create
 .text.lld_evt_end
                0x0010441c      0x180 C:/Users/h274519/ON_Semiconductor/ONSemiconductor/RSL10/3.0.534/lib/ble_core/Release/libblelib.a(lld_evt.o)
                0x0010441c                lld_evt_end
 .text.lld_evt_rx
                0x0010459c       0x40 C:/Users/h274519/ON_Semiconductor/ONSemiconductor/RSL10/3.0.534/lib/ble_core/Release/libblelib.a(lld_evt.o)
                0x0010459c                lld_evt_rx
 .text.lld_evt_end_isr
                0x001045dc       0x4c C:/Users/h274519/ON_Semiconductor/ONSemiconductor/RSL10/3.0.534/lib/ble_core/Release/libblelib.a(lld_evt.o)
                0x001045dc                lld_evt_end_isr
 .text.lld_evt_rx_isr
                0x00104628       0x10 C:/Users/h274519/ON_Semiconductor/ONSemiconductor/RSL10/3.0.534/lib/ble_core/Release/libblelib.a(lld_evt.o)
                0x00104628                lld_evt_rx_isr
 .text.lld_evt_set_power_save
                0x00104638       0x10 C:/Users/h274519/ON_Semiconductor/ONSemiconductor/RSL10/3.0.534/lib/ble_core/Release/libblelib.a(lld_evt.o)
                0x00104638                lld_evt_set_power_save
 .text.lld_sleep_init
                0x00104648       0x44 C:/Users/h274519/ON_Semiconductor/ONSemiconductor/RSL10/3.0.534/lib/ble_core/Release/libblelib.a(lld_sleep.o)
                0x00104648                lld_sleep_init
 .text.lld_sleep_wakeup
                0x0010468c       0x80 C:/Users/h274519/ON_Semiconductor/ONSemiconductor/RSL10/3.0.534/lib/ble_core/Release/libblelib.a(lld_sleep.o)
                0x0010468c                lld_sleep_wakeup
 .text.lld_sleep_wakeup_end
                0x0010470c       0x1c C:/Users/h274519/ON_Semiconductor/ONSemiconductor/RSL10/3.0.534/lib/ble_core/Release/libblelib.a(lld_sleep.o)
                0x0010470c                lld_sleep_wakeup_end
 .text.hci_evt_mask_set.part.0
                0x00104728       0x30 C:/Users/h274519/ON_Semiconductor/ONSemiconductor/RSL10/3.0.534/lib/ble_core/Release/libblelib.a(hci.o)
 .text.hci_reset
                0x00104758       0x24 C:/Users/h274519/ON_Semiconductor/ONSemiconductor/RSL10/3.0.534/lib/ble_core/Release/libblelib.a(hci.o)
                0x00104758                hci_reset
 .text.hci_init
                0x0010477c        0x4 C:/Users/h274519/ON_Semiconductor/ONSemiconductor/RSL10/3.0.534/lib/ble_core/Release/libblelib.a(hci.o)
                0x0010477c                hci_init
 .text.hci_send_2_host
                0x00104780       0xec C:/Users/h274519/ON_Semiconductor/ONSemiconductor/RSL10/3.0.534/lib/ble_core/Release/libblelib.a(hci.o)
                0x00104780                hci_send_2_host
 .text.hci_send_2_controller
                0x0010486c       0x90 C:/Users/h274519/ON_Semiconductor/ONSemiconductor/RSL10/3.0.534/lib/ble_core/Release/libblelib.a(hci.o)
                0x0010486c                hci_send_2_controller
 .text.hci_evt_mask_set
                0x001048fc       0x24 C:/Users/h274519/ON_Semiconductor/ONSemiconductor/RSL10/3.0.534/lib/ble_core/Release/libblelib.a(hci.o)
                0x001048fc                hci_evt_mask_set
 .text.hci_fc_init
                0x00104920       0x10 C:/Users/h274519/ON_Semiconductor/ONSemiconductor/RSL10/3.0.534/lib/ble_core/Release/libblelib.a(hci_fc.o)
                0x00104920                hci_fc_init
 .text.hci_fc_acl_buf_size_set
                0x00104930       0x20 C:/Users/h274519/ON_Semiconductor/ONSemiconductor/RSL10/3.0.534/lib/ble_core/Release/libblelib.a(hci_fc.o)
                0x00104930                hci_fc_acl_buf_size_set
 .text.hci_fc_acl_en
                0x00104950       0x30 C:/Users/h274519/ON_Semiconductor/ONSemiconductor/RSL10/3.0.534/lib/ble_core/Release/libblelib.a(hci_fc.o)
                0x00104950                hci_fc_acl_en
 .text.hci_fc_host_nb_acl_pkts_complete
                0x00104980       0x14 C:/Users/h274519/ON_Semiconductor/ONSemiconductor/RSL10/3.0.534/lib/ble_core/Release/libblelib.a(hci_fc.o)
                0x00104980                hci_fc_host_nb_acl_pkts_complete
 .text.hci_look_for_cmd_desc
                0x00104994       0x44 C:/Users/h274519/ON_Semiconductor/ONSemiconductor/RSL10/3.0.534/lib/ble_core/Release/libblelib.a(hci_msg.o)
                0x00104994                hci_look_for_cmd_desc
 .text.hci_look_for_evt_desc
                0x001049d8       0x24 C:/Users/h274519/ON_Semiconductor/ONSemiconductor/RSL10/3.0.534/lib/ble_core/Release/libblelib.a(hci_msg.o)
                0x001049d8                hci_look_for_evt_desc
 .text.hci_look_for_le_evt_desc
                0x001049fc       0x24 C:/Users/h274519/ON_Semiconductor/ONSemiconductor/RSL10/3.0.534/lib/ble_core/Release/libblelib.a(hci_msg.o)
                0x001049fc                hci_look_for_le_evt_desc
 .text.llm_wlpub_addr_set
                0x00104a20       0x24 C:/Users/h274519/ON_Semiconductor/ONSemiconductor/RSL10/3.0.534/lib/ble_core/Release/libblelib.a(llm.o)
 .text.llm_wlpriv_addr_set
                0x00104a44       0x24 C:/Users/h274519/ON_Semiconductor/ONSemiconductor/RSL10/3.0.534/lib/ble_core/Release/libblelib.a(llm.o)
 .text.llm_con_req_ind
                0x00104a68      0x198 C:/Users/h274519/ON_Semiconductor/ONSemiconductor/RSL10/3.0.534/lib/ble_core/Release/libblelib.a(llm.o)
                0x00104a68                llm_con_req_ind
 .text.llm_le_adv_report_ind
                0x00104c00      0x340 C:/Users/h274519/ON_Semiconductor/ONSemiconductor/RSL10/3.0.534/lib/ble_core/Release/libblelib.a(llm.o)
                0x00104c00                llm_le_adv_report_ind
 .text.llm_con_req_tx_cfm
                0x00104f40      0x130 C:/Users/h274519/ON_Semiconductor/ONSemiconductor/RSL10/3.0.534/lib/ble_core/Release/libblelib.a(llm.o)
                0x00104f40                llm_con_req_tx_cfm
 .text.llm_common_cmd_complete_send
                0x00105070       0x1c C:/Users/h274519/ON_Semiconductor/ONSemiconductor/RSL10/3.0.534/lib/ble_core/Release/libblelib.a(llm.o)
                0x00105070                llm_common_cmd_complete_send
 .text.llm_ble_ready
                0x0010508c        0x8 C:/Users/h274519/ON_Semiconductor/ONSemiconductor/RSL10/3.0.534/lib/ble_core/Release/libblelib.a(llm.o)
                0x0010508c                llm_ble_ready
 .text.llm_common_cmd_status_send
                0x00105094       0x1c C:/Users/h274519/ON_Semiconductor/ONSemiconductor/RSL10/3.0.534/lib/ble_core/Release/libblelib.a(llm.o)
                0x00105094                llm_common_cmd_status_send
 .text.llm_test_mode_start_tx
                0x001050b0      0x258 C:/Users/h274519/ON_Semiconductor/ONSemiconductor/RSL10/3.0.534/lib/ble_core/Release/libblelib.a(llm.o)
                0x001050b0                llm_test_mode_start_tx
 .text.llm_test_mode_start_rx
                0x00105308       0xc4 C:/Users/h274519/ON_Semiconductor/ONSemiconductor/RSL10/3.0.534/lib/ble_core/Release/libblelib.a(llm.o)
                0x00105308                llm_test_mode_start_rx
 .text.llm_set_adv_param
                0x001053cc      0x164 C:/Users/h274519/ON_Semiconductor/ONSemiconductor/RSL10/3.0.534/lib/ble_core/Release/libblelib.a(llm.o)
                0x001053cc                llm_set_adv_param
 .text.llm_set_adv_data
                0x00105530       0x90 C:/Users/h274519/ON_Semiconductor/ONSemiconductor/RSL10/3.0.534/lib/ble_core/Release/libblelib.a(llm.o)
                0x00105530                llm_set_adv_data
 .text.llm_set_scan_rsp_data
                0x001055c0       0x90 C:/Users/h274519/ON_Semiconductor/ONSemiconductor/RSL10/3.0.534/lib/ble_core/Release/libblelib.a(llm.o)
                0x001055c0                llm_set_scan_rsp_data
 .text.llm_set_scan_param
                0x00105650       0x88 C:/Users/h274519/ON_Semiconductor/ONSemiconductor/RSL10/3.0.534/lib/ble_core/Release/libblelib.a(llm.o)
                0x00105650                llm_set_scan_param
 .text.llm_wl_clr
                0x001056d8       0x5c C:/Users/h274519/ON_Semiconductor/ONSemiconductor/RSL10/3.0.534/lib/ble_core/Release/libblelib.a(llm.o)
                0x001056d8                llm_wl_clr
 .text.llm_wl_dev_add
                0x00105734       0x38 C:/Users/h274519/ON_Semiconductor/ONSemiconductor/RSL10/3.0.534/lib/ble_core/Release/libblelib.a(llm.o)
                0x00105734                llm_wl_dev_add
 .text.llm_wl_dev_rem
                0x0010576c       0x34 C:/Users/h274519/ON_Semiconductor/ONSemiconductor/RSL10/3.0.534/lib/ble_core/Release/libblelib.a(llm.o)
                0x0010576c                llm_wl_dev_rem
 .text.llm_wl_dev_add_hdl
                0x001057a0       0x7c C:/Users/h274519/ON_Semiconductor/ONSemiconductor/RSL10/3.0.534/lib/ble_core/Release/libblelib.a(llm.o)
                0x001057a0                llm_wl_dev_add_hdl
 .text.llm_wl_dev_rem_hdl
                0x0010581c       0x78 C:/Users/h274519/ON_Semiconductor/ONSemiconductor/RSL10/3.0.534/lib/ble_core/Release/libblelib.a(llm.o)
                0x0010581c                llm_wl_dev_rem_hdl
 .text.llm_encryption_start
                0x00105894       0xb8 C:/Users/h274519/ON_Semiconductor/ONSemiconductor/RSL10/3.0.534/lib/ble_core/Release/libblelib.a(llm.o)
                0x00105894                llm_encryption_start
 .text.llm_encryption_done
                0x0010594c       0xd0 C:/Users/h274519/ON_Semiconductor/ONSemiconductor/RSL10/3.0.534/lib/ble_core/Release/libblelib.a(llm.o)
                0x0010594c                llm_encryption_done
 .text.llm_ral_clear
                0x00105a1c       0x1c C:/Users/h274519/ON_Semiconductor/ONSemiconductor/RSL10/3.0.534/lib/ble_core/Release/libblelib.a(llm.o)
                0x00105a1c                llm_ral_clear
 .text.llm_init
                0x00105a38      0x1ec C:/Users/h274519/ON_Semiconductor/ONSemiconductor/RSL10/3.0.534/lib/ble_core/Release/libblelib.a(llm.o)
                0x00105a38                llm_init
 .text.llm_ral_dev_add
                0x00105c24      0x14c C:/Users/h274519/ON_Semiconductor/ONSemiconductor/RSL10/3.0.534/lib/ble_core/Release/libblelib.a(llm.o)
                0x00105c24                llm_ral_dev_add
 .text.llm_ral_dev_rm
                0x00105d70       0x3c C:/Users/h274519/ON_Semiconductor/ONSemiconductor/RSL10/3.0.534/lib/ble_core/Release/libblelib.a(llm.o)
                0x00105d70                llm_ral_dev_rm
 .text.llm_ral_get_rpa
                0x00105dac       0x70 C:/Users/h274519/ON_Semiconductor/ONSemiconductor/RSL10/3.0.534/lib/ble_core/Release/libblelib.a(llm.o)
                0x00105dac                llm_ral_get_rpa
 .text.llm_ral_set_timeout
                0x00105e1c       0x4c C:/Users/h274519/ON_Semiconductor/ONSemiconductor/RSL10/3.0.534/lib/ble_core/Release/libblelib.a(llm.o)
                0x00105e1c                llm_ral_set_timeout
 .text.llm_ral_update
                0x00105e68       0x34 C:/Users/h274519/ON_Semiconductor/ONSemiconductor/RSL10/3.0.534/lib/ble_core/Release/libblelib.a(llm.o)
                0x00105e68                llm_ral_update
 .text.llm_set_adv_en
                0x00105e9c      0x130 C:/Users/h274519/ON_Semiconductor/ONSemiconductor/RSL10/3.0.534/lib/ble_core/Release/libblelib.a(llm.o)
                0x00105e9c                llm_set_adv_en
 .text.llm_set_scan_en
                0x00105fcc       0xa0 C:/Users/h274519/ON_Semiconductor/ONSemiconductor/RSL10/3.0.534/lib/ble_core/Release/libblelib.a(llm.o)
                0x00105fcc                llm_set_scan_en
 .text.llm_create_con
                0x0010606c      0x138 C:/Users/h274519/ON_Semiconductor/ONSemiconductor/RSL10/3.0.534/lib/ble_core/Release/libblelib.a(llm.o)
                0x0010606c                llm_create_con
 .text.llm_dft_handler
                0x001061a4        0x4 C:/Users/h274519/ON_Semiconductor/ONSemiconductor/RSL10/3.0.534/lib/ble_core/Release/libblelib.a(llm_task.o)
 .text.llm_le_set_host_ch_class_cmd_sto_handler
                0x001061a8       0x10 C:/Users/h274519/ON_Semiconductor/ONSemiconductor/RSL10/3.0.534/lib/ble_core/Release/libblelib.a(llm_task.o)
 .text.llm_ecc_result_ind_handler
                0x001061b8       0xa0 C:/Users/h274519/ON_Semiconductor/ONSemiconductor/RSL10/3.0.534/lib/ble_core/Release/libblelib.a(llm_task.o)
 .text.llm_le_enh_priv_addr_renew_timer_handler
                0x00106258       0x4c C:/Users/h274519/ON_Semiconductor/ONSemiconductor/RSL10/3.0.534/lib/ble_core/Release/libblelib.a(llm_task.o)
 .text.llm_enc_req_handler
                0x001062a4       0x30 C:/Users/h274519/ON_Semiconductor/ONSemiconductor/RSL10/3.0.534/lib/ble_core/Release/libblelib.a(llm_task.o)
 .text.lld_stop_ind_handler
                0x001062d4       0x58 C:/Users/h274519/ON_Semiconductor/ONSemiconductor/RSL10/3.0.534/lib/ble_core/Release/libblelib.a(llm_task.o)
 .text.llm_util_bd_addr_wl_position
                0x0010632c       0x70 C:/Users/h274519/ON_Semiconductor/ONSemiconductor/RSL10/3.0.534/lib/ble_core/Release/libblelib.a(llm_util.o)
                0x0010632c                llm_util_bd_addr_wl_position
 .text.llm_util_check_address_validity
                0x0010639c       0x18 C:/Users/h274519/ON_Semiconductor/ONSemiconductor/RSL10/3.0.534/lib/ble_core/Release/libblelib.a(llm_util.o)
                0x0010639c                llm_util_check_address_validity
 .text.llm_util_check_map_validity
                0x001063b4       0x4a C:/Users/h274519/ON_Semiconductor/ONSemiconductor/RSL10/3.0.534/lib/ble_core/Release/libblelib.a(llm_util.o)
                0x001063b4                llm_util_check_map_validity
 *fill*         0x001063fe        0x2 
 .text.llm_util_apply_bd_addr
                0x00106400       0x20 C:/Users/h274519/ON_Semiconductor/ONSemiconductor/RSL10/3.0.534/lib/ble_core/Release/libblelib.a(llm_util.o)
                0x00106400                llm_util_apply_bd_addr
 .text.llm_util_check_evt_mask
                0x00106420       0x1c C:/Users/h274519/ON_Semiconductor/ONSemiconductor/RSL10/3.0.534/lib/ble_core/Release/libblelib.a(llm_util.o)
                0x00106420                llm_util_check_evt_mask
 .text.llm_util_get_channel_map
                0x0010643c       0x10 C:/Users/h274519/ON_Semiconductor/ONSemiconductor/RSL10/3.0.534/lib/ble_core/Release/libblelib.a(llm_util.o)
                0x0010643c                llm_util_get_channel_map
 .text.llm_util_get_supp_features
                0x0010644c       0x10 C:/Users/h274519/ON_Semiconductor/ONSemiconductor/RSL10/3.0.534/lib/ble_core/Release/libblelib.a(llm_util.o)
                0x0010644c                llm_util_get_supp_features
 .text.llm_util_adv_data_update
                0x0010645c       0x40 C:/Users/h274519/ON_Semiconductor/ONSemiconductor/RSL10/3.0.534/lib/ble_core/Release/libblelib.a(llm_util.o)
                0x0010645c                llm_util_adv_data_update
 .text.llm_util_bl_check
                0x0010649c       0x68 C:/Users/h274519/ON_Semiconductor/ONSemiconductor/RSL10/3.0.534/lib/ble_core/Release/libblelib.a(llm_util.o)
                0x0010649c                llm_util_bl_check
 .text.llm_util_bd_addr_in_wl
                0x00106504       0x4e C:/Users/h274519/ON_Semiconductor/ONSemiconductor/RSL10/3.0.534/lib/ble_core/Release/libblelib.a(llm_util.o)
                0x00106504                llm_util_bd_addr_in_wl
 *fill*         0x00106552        0x2 
 .text.llm_util_get_default_phy
                0x00106554       0x2c C:/Users/h274519/ON_Semiconductor/ONSemiconductor/RSL10/3.0.534/lib/ble_core/Release/libblelib.a(llm_util.o)
                0x00106554                llm_util_get_default_phy
 .text.llm_util_bd_addr_in_ral
                0x00106580       0x68 C:/Users/h274519/ON_Semiconductor/ONSemiconductor/RSL10/3.0.534/lib/ble_core/Release/libblelib.a(llm_util.o)
                0x00106580                llm_util_bd_addr_in_ral
 .text.llm_util_bl_add
                0x001065e8       0x8c C:/Users/h274519/ON_Semiconductor/ONSemiconductor/RSL10/3.0.534/lib/ble_core/Release/libblelib.a(llm_util.o)
                0x001065e8                llm_util_bl_add
 .text.llm_util_bl_rem
                0x00106674       0x6c C:/Users/h274519/ON_Semiconductor/ONSemiconductor/RSL10/3.0.534/lib/ble_core/Release/libblelib.a(llm_util.o)
                0x00106674                llm_util_bl_rem
 .text.llm_end_evt_defer
                0x001066e0       0xb8 C:/Users/h274519/ON_Semiconductor/ONSemiconductor/RSL10/3.0.534/lib/ble_core/Release/libblelib.a(llm_util.o)
                0x001066e0                llm_end_evt_defer
 .text.llm_pdu_defer
                0x00106798       0x7c C:/Users/h274519/ON_Semiconductor/ONSemiconductor/RSL10/3.0.534/lib/ble_core/Release/libblelib.a(llm_util.o)
                0x00106798                llm_pdu_defer
 .text.lld_init
                0x00106814      0x228 C:/Users/h274519/ON_Semiconductor/ONSemiconductor/RSL10/3.0.534/lib/ble_core/Release/libblelib.a(lld.o)
                0x00106814                lld_init
 .text.lld_core_reset
                0x00106a3c       0x5c C:/Users/h274519/ON_Semiconductor/ONSemiconductor/RSL10/3.0.534/lib/ble_core/Release/libblelib.a(lld.o)
                0x00106a3c                lld_core_reset
 .text.lld_adv_start
                0x00106a98      0x21c C:/Users/h274519/ON_Semiconductor/ONSemiconductor/RSL10/3.0.534/lib/ble_core/Release/libblelib.a(lld.o)
                0x00106a98                lld_adv_start
 .text.lld_adv_stop
                0x00106cb4       0x2c C:/Users/h274519/ON_Semiconductor/ONSemiconductor/RSL10/3.0.534/lib/ble_core/Release/libblelib.a(lld.o)
                0x00106cb4                lld_adv_stop
 .text.lld_scan_start
                0x00106ce0      0x1bc C:/Users/h274519/ON_Semiconductor/ONSemiconductor/RSL10/3.0.534/lib/ble_core/Release/libblelib.a(lld.o)
                0x00106ce0                lld_scan_start
 .text.lld_scan_stop
                0x00106e9c       0x2c C:/Users/h274519/ON_Semiconductor/ONSemiconductor/RSL10/3.0.534/lib/ble_core/Release/libblelib.a(lld.o)
                0x00106e9c                lld_scan_stop
 .text.lld_con_start
                0x00106ec8      0x5ec C:/Users/h274519/ON_Semiconductor/ONSemiconductor/RSL10/3.0.534/lib/ble_core/Release/libblelib.a(lld.o)
                0x00106ec8                lld_con_start
 .text.lld_move_to_master
                0x001074b4       0xc8 C:/Users/h274519/ON_Semiconductor/ONSemiconductor/RSL10/3.0.534/lib/ble_core/Release/libblelib.a(lld.o)
                0x001074b4                lld_move_to_master
 .text.lld_con_update_req
                0x0010757c       0x5a C:/Users/h274519/ON_Semiconductor/ONSemiconductor/RSL10/3.0.534/lib/ble_core/Release/libblelib.a(lld.o)
                0x0010757c                lld_con_update_req
 *fill*         0x001075d6        0x2 
 .text.lld_con_update_after_param_req
                0x001075d8      0x250 C:/Users/h274519/ON_Semiconductor/ONSemiconductor/RSL10/3.0.534/lib/ble_core/Release/libblelib.a(lld.o)
                0x001075d8                lld_con_update_after_param_req
 .text.lld_con_param_rsp
                0x00107828      0x102 C:/Users/h274519/ON_Semiconductor/ONSemiconductor/RSL10/3.0.534/lib/ble_core/Release/libblelib.a(lld.o)
                0x00107828                lld_con_param_rsp
 .text.lld_con_param_req
                0x0010792a       0xca C:/Users/h274519/ON_Semiconductor/ONSemiconductor/RSL10/3.0.534/lib/ble_core/Release/libblelib.a(lld.o)
                0x0010792a                lld_con_param_req
 .text.lld_con_stop
                0x001079f4        0x8 C:/Users/h274519/ON_Semiconductor/ONSemiconductor/RSL10/3.0.534/lib/ble_core/Release/libblelib.a(lld.o)
                0x001079f4                lld_con_stop
 .text.lld_get_mode
                0x001079fc       0x28 C:/Users/h274519/ON_Semiconductor/ONSemiconductor/RSL10/3.0.534/lib/ble_core/Release/libblelib.a(lld.o)
                0x001079fc                lld_get_mode
 .text.lld_move_to_slave
                0x00107a24      0x1b0 C:/Users/h274519/ON_Semiconductor/ONSemiconductor/RSL10/3.0.534/lib/ble_core/Release/libblelib.a(lld.o)
                0x00107a24                lld_move_to_slave
 .text.lld_ch_map_ind
                0x00107bd4       0x46 C:/Users/h274519/ON_Semiconductor/ONSemiconductor/RSL10/3.0.534/lib/ble_core/Release/libblelib.a(lld.o)
                0x00107bd4                lld_ch_map_ind
 .text.lld_con_update_ind
                0x00107c1a        0xa C:/Users/h274519/ON_Semiconductor/ONSemiconductor/RSL10/3.0.534/lib/ble_core/Release/libblelib.a(lld.o)
                0x00107c1a                lld_con_update_ind
 .text.lld_crypt_isr
                0x00107c24        0x6 C:/Users/h274519/ON_Semiconductor/ONSemiconductor/RSL10/3.0.534/lib/ble_core/Release/libblelib.a(lld.o)
                0x00107c24                lld_crypt_isr
 *fill*         0x00107c2a        0x2 
 .text.lld_test_mode_tx
                0x00107c2c       0xfc C:/Users/h274519/ON_Semiconductor/ONSemiconductor/RSL10/3.0.534/lib/ble_core/Release/libblelib.a(lld.o)
                0x00107c2c                lld_test_mode_tx
 .text.lld_test_mode_rx
                0x00107d28       0xf4 C:/Users/h274519/ON_Semiconductor/ONSemiconductor/RSL10/3.0.534/lib/ble_core/Release/libblelib.a(lld.o)
                0x00107d28                lld_test_mode_rx
 .text.lld_test_stop
                0x00107e1c       0x68 C:/Users/h274519/ON_Semiconductor/ONSemiconductor/RSL10/3.0.534/lib/ble_core/Release/libblelib.a(lld.o)
                0x00107e1c                lld_test_stop
 .text.lld_ral_renew_req
                0x00107e84       0x14 C:/Users/h274519/ON_Semiconductor/ONSemiconductor/RSL10/3.0.534/lib/ble_core/Release/libblelib.a(lld.o)
                0x00107e84                lld_ral_renew_req
 .text.lld_pdu_llcp_con_param_req_unpk
                0x00107e98       0xcc C:/Users/h274519/ON_Semiconductor/ONSemiconductor/RSL10/3.0.534/lib/ble_core/Release/libblelib.a(lld_pdu.o)
 .text.lld_pdu_llcp_con_param_rsp_unpk
                0x00107f64       0xcc C:/Users/h274519/ON_Semiconductor/ONSemiconductor/RSL10/3.0.534/lib/ble_core/Release/libblelib.a(lld_pdu.o)
 .text.lld_pdu_llcp_length_req_unpk
                0x00108030       0x3e C:/Users/h274519/ON_Semiconductor/ONSemiconductor/RSL10/3.0.534/lib/ble_core/Release/libblelib.a(lld_pdu.o)
 .text.lld_pdu_llcp_length_rsp_unpk
                0x0010806e       0x3e C:/Users/h274519/ON_Semiconductor/ONSemiconductor/RSL10/3.0.534/lib/ble_core/Release/libblelib.a(lld_pdu.o)
 .text.lld_pdu_llcp_phy_upd_req_unpk
                0x001080ac       0x2e C:/Users/h274519/ON_Semiconductor/ONSemiconductor/RSL10/3.0.534/lib/ble_core/Release/libblelib.a(lld_pdu.o)
 .text.lld_pdu_pack
                0x001080da       0xc0 C:/Users/h274519/ON_Semiconductor/ONSemiconductor/RSL10/3.0.534/lib/ble_core/Release/libblelib.a(lld_pdu.o)
 *fill*         0x0010819a        0x2 
 .text.lld_pdu_tx_flush_list
                0x0010819c       0x7c C:/Users/h274519/ON_Semiconductor/ONSemiconductor/RSL10/3.0.534/lib/ble_core/Release/libblelib.a(lld_pdu.o)
 .text.lld_pdu_cntl_aligned_unpk
                0x00108218       0x16 C:/Users/h274519/ON_Semiconductor/ONSemiconductor/RSL10/3.0.534/lib/ble_core/Release/libblelib.a(lld_pdu.o)
 *fill*         0x0010822e        0x2 
 .text.lld_pdu_check
                0x00108230      0x158 C:/Users/h274519/ON_Semiconductor/ONSemiconductor/RSL10/3.0.534/lib/ble_core/Release/libblelib.a(lld_pdu.o)
                0x00108230                lld_pdu_check
 .text.lld_pdu_tx_loop
                0x00108388       0x2c C:/Users/h274519/ON_Semiconductor/ONSemiconductor/RSL10/3.0.534/lib/ble_core/Release/libblelib.a(lld_pdu.o)
                0x00108388                lld_pdu_tx_loop
 .text.lld_pdu_data_tx_push
                0x001083b4       0x88 C:/Users/h274519/ON_Semiconductor/ONSemiconductor/RSL10/3.0.534/lib/ble_core/Release/libblelib.a(lld_pdu.o)
                0x001083b4                lld_pdu_data_tx_push
 .text.lld_pdu_data_send
                0x0010843c       0x50 C:/Users/h274519/ON_Semiconductor/ONSemiconductor/RSL10/3.0.534/lib/ble_core/Release/libblelib.a(lld_pdu.o)
                0x0010843c                lld_pdu_data_send
 .text.lld_pdu_tx_push
                0x0010848c       0x40 C:/Users/h274519/ON_Semiconductor/ONSemiconductor/RSL10/3.0.534/lib/ble_core/Release/libblelib.a(lld_pdu.o)
                0x0010848c                lld_pdu_tx_push
 .text.lld_pdu_tx_prog
                0x001084cc      0x444 C:/Users/h274519/ON_Semiconductor/ONSemiconductor/RSL10/3.0.534/lib/ble_core/Release/libblelib.a(lld_pdu.o)
                0x001084cc                lld_pdu_tx_prog
 .text.lld_pdu_tx_flush
                0x00108910       0x5a C:/Users/h274519/ON_Semiconductor/ONSemiconductor/RSL10/3.0.534/lib/ble_core/Release/libblelib.a(lld_pdu.o)
                0x00108910                lld_pdu_tx_flush
 *fill*         0x0010896a        0x2 
 .text.lld_pdu_adv_pack
                0x0010896c       0x24 C:/Users/h274519/ON_Semiconductor/ONSemiconductor/RSL10/3.0.534/lib/ble_core/Release/libblelib.a(lld_pdu.o)
                0x0010896c                lld_pdu_adv_pack
 .text.lld_pdu_rx_handler
                0x00108990      0x2c8 C:/Users/h274519/ON_Semiconductor/ONSemiconductor/RSL10/3.0.534/lib/ble_core/Release/libblelib.a(lld_pdu.o)
                0x00108990                lld_pdu_rx_handler
 .text.lld_util_instant_get
                0x00108c58       0x18 C:/Users/h274519/ON_Semiconductor/ONSemiconductor/RSL10/3.0.534/lib/ble_core/Release/libblelib.a(lld_util.o)
                0x00108c58                lld_util_instant_get
 .text.lld_util_set_bd_address
                0x00108c70       0x44 C:/Users/h274519/ON_Semiconductor/ONSemiconductor/RSL10/3.0.534/lib/ble_core/Release/libblelib.a(lld_util.o)
                0x00108c70                lld_util_set_bd_address
 .text.lld_util_ral_force_rpa_renew
                0x00108cb4       0x44 C:/Users/h274519/ON_Semiconductor/ONSemiconductor/RSL10/3.0.534/lib/ble_core/Release/libblelib.a(lld_util.o)
                0x00108cb4                lld_util_ral_force_rpa_renew
 .text.lld_util_freq2chnl
                0x00108cf8       0x20 C:/Users/h274519/ON_Semiconductor/ONSemiconductor/RSL10/3.0.534/lib/ble_core/Release/libblelib.a(lld_util.o)
                0x00108cf8                lld_util_freq2chnl
 .text.lld_util_get_local_offset
                0x00108d18       0x16 C:/Users/h274519/ON_Semiconductor/ONSemiconductor/RSL10/3.0.534/lib/ble_core/Release/libblelib.a(lld_util.o)
                0x00108d18                lld_util_get_local_offset
 .text.lld_util_get_peer_offset
                0x00108d2e       0x18 C:/Users/h274519/ON_Semiconductor/ONSemiconductor/RSL10/3.0.534/lib/ble_core/Release/libblelib.a(lld_util.o)
                0x00108d2e                lld_util_get_peer_offset
 .text.lld_util_connection_param_set
                0x00108d46       0x44 C:/Users/h274519/ON_Semiconductor/ONSemiconductor/RSL10/3.0.534/lib/ble_core/Release/libblelib.a(lld_util.o)
                0x00108d46                lld_util_connection_param_set
 *fill*         0x00108d8a        0x2 
 .text.lld_util_dle_set_cs_fields
                0x00108d8c       0x18 C:/Users/h274519/ON_Semiconductor/ONSemiconductor/RSL10/3.0.534/lib/ble_core/Release/libblelib.a(lld_util.o)
                0x00108d8c                lld_util_dle_set_cs_fields
 .text.lld_util_anchor_point_move
                0x00108da4       0xde C:/Users/h274519/ON_Semiconductor/ONSemiconductor/RSL10/3.0.534/lib/ble_core/Release/libblelib.a(lld_util.o)
                0x00108da4                lld_util_anchor_point_move
 .text.lld_util_flush_list
                0x00108e82       0x14 C:/Users/h274519/ON_Semiconductor/ONSemiconductor/RSL10/3.0.534/lib/ble_core/Release/libblelib.a(lld_util.o)
                0x00108e82                lld_util_flush_list
 .text.lld_util_instant_ongoing
                0x00108e96        0xc C:/Users/h274519/ON_Semiconductor/ONSemiconductor/RSL10/3.0.534/lib/ble_core/Release/libblelib.a(lld_util.o)
                0x00108e96                lld_util_instant_ongoing
 *fill*         0x00108ea2        0x2 
 .text.lld_util_compute_ce_max
                0x00108ea4       0xb0 C:/Users/h274519/ON_Semiconductor/ONSemiconductor/RSL10/3.0.534/lib/ble_core/Release/libblelib.a(lld_util.o)
                0x00108ea4                lld_util_compute_ce_max
 .text.lld_util_priority_set
                0x00108f54       0x48 C:/Users/h274519/ON_Semiconductor/ONSemiconductor/RSL10/3.0.534/lib/ble_core/Release/libblelib.a(lld_util.o)
                0x00108f54                lld_util_priority_set
 .text.lld_util_get_tx_pkt_cnt
                0x00108f9c        0x6 C:/Users/h274519/ON_Semiconductor/ONSemiconductor/RSL10/3.0.534/lib/ble_core/Release/libblelib.a(lld_util.o)
                0x00108f9c                lld_util_get_tx_pkt_cnt
 *fill*         0x00108fa2        0x2 
 .text.lld_util_get_phys
                0x00108fa4       0x34 C:/Users/h274519/ON_Semiconductor/ONSemiconductor/RSL10/3.0.534/lib/ble_core/Release/libblelib.a(lld_util.o)
                0x00108fa4                lld_util_get_phys
 .text.lld_util_phy_update_ind
                0x00108fd8       0x74 C:/Users/h274519/ON_Semiconductor/ONSemiconductor/RSL10/3.0.534/lib/ble_core/Release/libblelib.a(lld_util.o)
                0x00108fd8                lld_util_phy_update_ind
 .text.lld_util_phy_update_req
                0x0010904c       0x40 C:/Users/h274519/ON_Semiconductor/ONSemiconductor/RSL10/3.0.534/lib/ble_core/Release/libblelib.a(lld_util.o)
                0x0010904c                lld_util_phy_update_req
 .text.lld_util_pref_slave_latency_set
                0x0010908c       0x4c C:/Users/h274519/ON_Semiconductor/ONSemiconductor/RSL10/3.0.534/lib/ble_core/Release/libblelib.a(lld_util.o)
                0x0010908c                lld_util_pref_slave_latency_set
 .text.lld_util_eff_tx_time_set
                0x001090d8        0xa C:/Users/h274519/ON_Semiconductor/ONSemiconductor/RSL10/3.0.534/lib/ble_core/Release/libblelib.a(lld_util.o)
                0x001090d8                lld_util_eff_tx_time_set
 *fill*         0x001090e2        0x2 
 .text.lld_util_max_lat_compute
                0x001090e4       0x84 C:/Users/h274519/ON_Semiconductor/ONSemiconductor/RSL10/3.0.534/lib/ble_core/Release/libblelib.a(lld_util.o)
                0x001090e4                lld_util_max_lat_compute
 .text.lld_wlcoex_set
                0x00109168       0x18 C:/Users/h274519/ON_Semiconductor/ONSemiconductor/RSL10/3.0.534/lib/ble_core/Release/libblelib.a(lld_wlcoex.o)
                0x00109168                lld_wlcoex_set
 .text.llc_init
                0x00109180       0x38 C:/Users/h274519/ON_Semiconductor/ONSemiconductor/RSL10/3.0.534/lib/ble_core/Release/libblelib.a(llc.o)
                0x00109180                llc_init
 .text.llc_stop
                0x001091b8       0x54 C:/Users/h274519/ON_Semiconductor/ONSemiconductor/RSL10/3.0.534/lib/ble_core/Release/libblelib.a(llc.o)
                0x001091b8                llc_stop
 .text.llc_reset
                0x0010920c       0x26 C:/Users/h274519/ON_Semiconductor/ONSemiconductor/RSL10/3.0.534/lib/ble_core/Release/libblelib.a(llc.o)
                0x0010920c                llc_reset
 .text.llc_discon_event_complete_send
                0x00109232       0x24 C:/Users/h274519/ON_Semiconductor/ONSemiconductor/RSL10/3.0.534/lib/ble_core/Release/libblelib.a(llc.o)
                0x00109232                llc_discon_event_complete_send
 *fill*         0x00109256        0x2 
 .text.llc_le_con_cmp_evt_send
                0x00109258      0x248 C:/Users/h274519/ON_Semiconductor/ONSemiconductor/RSL10/3.0.534/lib/ble_core/Release/libblelib.a(llc.o)
                0x00109258                llc_le_con_cmp_evt_send
 .text.llc_start
                0x001094a0      0x160 C:/Users/h274519/ON_Semiconductor/ONSemiconductor/RSL10/3.0.534/lib/ble_core/Release/libblelib.a(llc.o)
                0x001094a0                llc_start
 .text.llc_con_update_complete_send
                0x00109600       0x60 C:/Users/h274519/ON_Semiconductor/ONSemiconductor/RSL10/3.0.534/lib/ble_core/Release/libblelib.a(llc.o)
                0x00109600                llc_con_update_complete_send
 .text.llc_ltk_req_send
                0x00109660       0x36 C:/Users/h274519/ON_Semiconductor/ONSemiconductor/RSL10/3.0.534/lib/ble_core/Release/libblelib.a(llc.o)
                0x00109660                llc_ltk_req_send
 .text.llc_feats_rd_event_send
                0x00109696       0x38 C:/Users/h274519/ON_Semiconductor/ONSemiconductor/RSL10/3.0.534/lib/ble_core/Release/libblelib.a(llc.o)
                0x00109696                llc_feats_rd_event_send
 *fill*         0x001096ce        0x2 
 .text.llc_version_rd_event_send
                0x001096d0       0x3c C:/Users/h274519/ON_Semiconductor/ONSemiconductor/RSL10/3.0.534/lib/ble_core/Release/libblelib.a(llc.o)
                0x001096d0                llc_version_rd_event_send
 .text.llc_common_cmd_complete_send
                0x0010970c       0x20 C:/Users/h274519/ON_Semiconductor/ONSemiconductor/RSL10/3.0.534/lib/ble_core/Release/libblelib.a(llc.o)
                0x0010970c                llc_common_cmd_complete_send
 .text.llc_common_cmd_status_send
                0x0010972c       0x1c C:/Users/h274519/ON_Semiconductor/ONSemiconductor/RSL10/3.0.534/lib/ble_core/Release/libblelib.a(llc.o)
                0x0010972c                llc_common_cmd_status_send
 .text.llc_common_enc_key_ref_comp_evt_send
                0x00109748       0x20 C:/Users/h274519/ON_Semiconductor/ONSemiconductor/RSL10/3.0.534/lib/ble_core/Release/libblelib.a(llc.o)
                0x00109748                llc_common_enc_key_ref_comp_evt_send
 .text.llc_common_enc_change_evt_send
                0x00109768       0x78 C:/Users/h274519/ON_Semiconductor/ONSemiconductor/RSL10/3.0.534/lib/ble_core/Release/libblelib.a(llc.o)
                0x00109768                llc_common_enc_change_evt_send
 .text.llc_common_nb_of_pkt_comp_evt_send
                0x001097e0       0x24 C:/Users/h274519/ON_Semiconductor/ONSemiconductor/RSL10/3.0.534/lib/ble_core/Release/libblelib.a(llc.o)
                0x001097e0                llc_common_nb_of_pkt_comp_evt_send
 .text.llc_con_update_ind
                0x00109804       0x4c C:/Users/h274519/ON_Semiconductor/ONSemiconductor/RSL10/3.0.534/lib/ble_core/Release/libblelib.a(llc.o)
                0x00109804                llc_con_update_ind
 .text.llc_lsto_con_update
                0x00109850       0x44 C:/Users/h274519/ON_Semiconductor/ONSemiconductor/RSL10/3.0.534/lib/ble_core/Release/libblelib.a(llc.o)
                0x00109850                llc_lsto_con_update
 .text.llc_map_update_ind
                0x00109894       0x6c C:/Users/h274519/ON_Semiconductor/ONSemiconductor/RSL10/3.0.534/lib/ble_core/Release/libblelib.a(llc.o)
                0x00109894                llc_map_update_ind
 .text.llc_con_update_finished
                0x00109900       0x84 C:/Users/h274519/ON_Semiconductor/ONSemiconductor/RSL10/3.0.534/lib/ble_core/Release/libblelib.a(llc.o)
                0x00109900                llc_con_update_finished
 .text.llc_map_update_finished
                0x00109984       0x7c C:/Users/h274519/ON_Semiconductor/ONSemiconductor/RSL10/3.0.534/lib/ble_core/Release/libblelib.a(llc.o)
                0x00109984                llc_map_update_finished
 .text.llc_phy_update_complete_send
                0x00109a00       0x2a C:/Users/h274519/ON_Semiconductor/ONSemiconductor/RSL10/3.0.534/lib/ble_core/Release/libblelib.a(llc.o)
                0x00109a00                llc_phy_update_complete_send
 *fill*         0x00109a2a        0x2 
 .text.llc_phy_update_finished
                0x00109a2c       0xbc C:/Users/h274519/ON_Semiconductor/ONSemiconductor/RSL10/3.0.534/lib/ble_core/Release/libblelib.a(llc.o)
                0x00109a2c                llc_phy_update_finished
 .text.llc_llcp_send
                0x00109ae8       0x8c C:/Users/h274519/ON_Semiconductor/ONSemiconductor/RSL10/3.0.534/lib/ble_core/Release/libblelib.a(llc_llcp.o)
 .text.llcp_ping_rsp_handler
                0x00109b74       0x54 C:/Users/h274519/ON_Semiconductor/ONSemiconductor/RSL10/3.0.534/lib/ble_core/Release/libblelib.a(llc_llcp.o)
 .text.llcp_enc_rsp_handler
                0x00109bc8       0xe0 C:/Users/h274519/ON_Semiconductor/ONSemiconductor/RSL10/3.0.534/lib/ble_core/Release/libblelib.a(llc_llcp.o)
 .text.llcp_terminate_ind_handler
                0x00109ca8       0x4c C:/Users/h274519/ON_Semiconductor/ONSemiconductor/RSL10/3.0.534/lib/ble_core/Release/libblelib.a(llc_llcp.o)
 .text.llc_llcp_reject_ind
                0x00109cf4      0x224 C:/Users/h274519/ON_Semiconductor/ONSemiconductor/RSL10/3.0.534/lib/ble_core/Release/libblelib.a(llc_llcp.o)
 .text.llcp_reject_ind_ext_handler
                0x00109f18        0xe C:/Users/h274519/ON_Semiconductor/ONSemiconductor/RSL10/3.0.534/lib/ble_core/Release/libblelib.a(llc_llcp.o)
 .text.llcp_reject_ind_handler
                0x00109f26        0xe C:/Users/h274519/ON_Semiconductor/ONSemiconductor/RSL10/3.0.534/lib/ble_core/Release/libblelib.a(llc_llcp.o)
 .text.llcp_pause_enc_req_handler
                0x00109f34       0xb0 C:/Users/h274519/ON_Semiconductor/ONSemiconductor/RSL10/3.0.534/lib/ble_core/Release/libblelib.a(llc_llcp.o)
 .text.llcp_start_enc_req_handler
                0x00109fe4       0x68 C:/Users/h274519/ON_Semiconductor/ONSemiconductor/RSL10/3.0.534/lib/ble_core/Release/libblelib.a(llc_llcp.o)
 .text.llcp_enc_req_handler
                0x0010a04c       0xc0 C:/Users/h274519/ON_Semiconductor/ONSemiconductor/RSL10/3.0.534/lib/ble_core/Release/libblelib.a(llc_llcp.o)
 .text.llcp_unknown_rsp_handler
                0x0010a10c      0x23c C:/Users/h274519/ON_Semiconductor/ONSemiconductor/RSL10/3.0.534/lib/ble_core/Release/libblelib.a(llc_llcp.o)
 .text.llc_llcp_version_ind_pdu_send
                0x0010a348       0x2c C:/Users/h274519/ON_Semiconductor/ONSemiconductor/RSL10/3.0.534/lib/ble_core/Release/libblelib.a(llc_llcp.o)
                0x0010a348                llc_llcp_version_ind_pdu_send
 .text.llcp_vers_ind_handler
                0x0010a374       0x94 C:/Users/h274519/ON_Semiconductor/ONSemiconductor/RSL10/3.0.534/lib/ble_core/Release/libblelib.a(llc_llcp.o)
 .text.llc_llcp_ch_map_update_pdu_send
                0x0010a408       0x44 C:/Users/h274519/ON_Semiconductor/ONSemiconductor/RSL10/3.0.534/lib/ble_core/Release/libblelib.a(llc_llcp.o)
                0x0010a408                llc_llcp_ch_map_update_pdu_send
 .text.llc_llcp_pause_enc_req_pdu_send
                0x0010a44c       0x30 C:/Users/h274519/ON_Semiconductor/ONSemiconductor/RSL10/3.0.534/lib/ble_core/Release/libblelib.a(llc_llcp.o)
                0x0010a44c                llc_llcp_pause_enc_req_pdu_send
 .text.llc_llcp_pause_enc_rsp_pdu_send
                0x0010a47c       0x40 C:/Users/h274519/ON_Semiconductor/ONSemiconductor/RSL10/3.0.534/lib/ble_core/Release/libblelib.a(llc_llcp.o)
                0x0010a47c                llc_llcp_pause_enc_rsp_pdu_send
 .text.llcp_pause_enc_rsp_handler
                0x0010a4bc       0xd4 C:/Users/h274519/ON_Semiconductor/ONSemiconductor/RSL10/3.0.534/lib/ble_core/Release/libblelib.a(llc_llcp.o)
 .text.llc_llcp_enc_req_pdu_send
                0x0010a590       0xe0 C:/Users/h274519/ON_Semiconductor/ONSemiconductor/RSL10/3.0.534/lib/ble_core/Release/libblelib.a(llc_llcp.o)
                0x0010a590                llc_llcp_enc_req_pdu_send
 .text.llc_llcp_enc_rsp_pdu_send
                0x0010a670       0x74 C:/Users/h274519/ON_Semiconductor/ONSemiconductor/RSL10/3.0.534/lib/ble_core/Release/libblelib.a(llc_llcp.o)
                0x0010a670                llc_llcp_enc_rsp_pdu_send
 .text.llc_llcp_start_enc_rsp_pdu_send
                0x0010a6e4       0x34 C:/Users/h274519/ON_Semiconductor/ONSemiconductor/RSL10/3.0.534/lib/ble_core/Release/libblelib.a(llc_llcp.o)
                0x0010a6e4                llc_llcp_start_enc_rsp_pdu_send
 .text.llcp_start_enc_rsp_handler
                0x0010a718      0x10c C:/Users/h274519/ON_Semiconductor/ONSemiconductor/RSL10/3.0.534/lib/ble_core/Release/libblelib.a(llc_llcp.o)
 .text.llc_llcp_reject_ind_pdu_send
                0x0010a824       0x5c C:/Users/h274519/ON_Semiconductor/ONSemiconductor/RSL10/3.0.534/lib/ble_core/Release/libblelib.a(llc_llcp.o)
                0x0010a824                llc_llcp_reject_ind_pdu_send
 .text.llcp_phy_upd_ind_handler
                0x0010a880      0x1e8 C:/Users/h274519/ON_Semiconductor/ONSemiconductor/RSL10/3.0.534/lib/ble_core/Release/libblelib.a(llc_llcp.o)
 .text.llcp_phy_rsp_handler
                0x0010aa68       0x6c C:/Users/h274519/ON_Semiconductor/ONSemiconductor/RSL10/3.0.534/lib/ble_core/Release/libblelib.a(llc_llcp.o)
 .text.llcp_length_rsp_handler
                0x0010aad4      0x13c C:/Users/h274519/ON_Semiconductor/ONSemiconductor/RSL10/3.0.534/lib/ble_core/Release/libblelib.a(llc_llcp.o)
 .text.llcp_con_param_rsp_handler
                0x0010ac10       0xf0 C:/Users/h274519/ON_Semiconductor/ONSemiconductor/RSL10/3.0.534/lib/ble_core/Release/libblelib.a(llc_llcp.o)
 .text.llcp_feats_rsp_handler
                0x0010ad00       0xa8 C:/Users/h274519/ON_Semiconductor/ONSemiconductor/RSL10/3.0.534/lib/ble_core/Release/libblelib.a(llc_llcp.o)
 .text.llcp_channel_map_ind_handler
                0x0010ada8      0x128 C:/Users/h274519/ON_Semiconductor/ONSemiconductor/RSL10/3.0.534/lib/ble_core/Release/libblelib.a(llc_llcp.o)
 .text.llcp_con_upd_ind_handler
                0x0010aed0      0x174 C:/Users/h274519/ON_Semiconductor/ONSemiconductor/RSL10/3.0.534/lib/ble_core/Release/libblelib.a(llc_llcp.o)
 .text.llc_llcp_con_update_pdu_send
                0x0010b044       0x3a C:/Users/h274519/ON_Semiconductor/ONSemiconductor/RSL10/3.0.534/lib/ble_core/Release/libblelib.a(llc_llcp.o)
                0x0010b044                llc_llcp_con_update_pdu_send
 .text.llc_llcp_con_param_req_pdu_send
                0x0010b07e       0x60 C:/Users/h274519/ON_Semiconductor/ONSemiconductor/RSL10/3.0.534/lib/ble_core/Release/libblelib.a(llc_llcp.o)
                0x0010b07e                llc_llcp_con_param_req_pdu_send
 .text.llc_llcp_con_param_rsp_pdu_send
                0x0010b0de       0x60 C:/Users/h274519/ON_Semiconductor/ONSemiconductor/RSL10/3.0.534/lib/ble_core/Release/libblelib.a(llc_llcp.o)
                0x0010b0de                llc_llcp_con_param_rsp_pdu_send
 *fill*         0x0010b13e        0x2 
 .text.llcp_con_param_req_handler
                0x0010b140      0x200 C:/Users/h274519/ON_Semiconductor/ONSemiconductor/RSL10/3.0.534/lib/ble_core/Release/libblelib.a(llc_llcp.o)
 .text.llc_llcp_feats_req_pdu_send
                0x0010b340       0x2c C:/Users/h274519/ON_Semiconductor/ONSemiconductor/RSL10/3.0.534/lib/ble_core/Release/libblelib.a(llc_llcp.o)
                0x0010b340                llc_llcp_feats_req_pdu_send
 .text.llc_llcp_feats_rsp_pdu_send
                0x0010b36c       0x26 C:/Users/h274519/ON_Semiconductor/ONSemiconductor/RSL10/3.0.534/lib/ble_core/Release/libblelib.a(llc_llcp.o)
                0x0010b36c                llc_llcp_feats_rsp_pdu_send
 *fill*         0x0010b392        0x2 
 .text.llcp_feats_req_handler
                0x0010b394       0x50 C:/Users/h274519/ON_Semiconductor/ONSemiconductor/RSL10/3.0.534/lib/ble_core/Release/libblelib.a(llc_llcp.o)
 .text.llcp_slave_feature_req_handler
                0x0010b3e4        0x4 C:/Users/h274519/ON_Semiconductor/ONSemiconductor/RSL10/3.0.534/lib/ble_core/Release/libblelib.a(llc_llcp.o)
 .text.llc_llcp_start_enc_req_pdu_send
                0x0010b3e8       0x16 C:/Users/h274519/ON_Semiconductor/ONSemiconductor/RSL10/3.0.534/lib/ble_core/Release/libblelib.a(llc_llcp.o)
                0x0010b3e8                llc_llcp_start_enc_req_pdu_send
 *fill*         0x0010b3fe        0x2 
 .text.llc_llcp_terminate_ind_pdu_send
                0x0010b400       0x64 C:/Users/h274519/ON_Semiconductor/ONSemiconductor/RSL10/3.0.534/lib/ble_core/Release/libblelib.a(llc_llcp.o)
                0x0010b400                llc_llcp_terminate_ind_pdu_send
 .text.llc_llcp_unknown_rsp_send_pdu
                0x0010b464       0x1a C:/Users/h274519/ON_Semiconductor/ONSemiconductor/RSL10/3.0.534/lib/ble_core/Release/libblelib.a(llc_llcp.o)
                0x0010b464                llc_llcp_unknown_rsp_send_pdu
 .text.llc_llcp_ping_req_pdu_send
                0x0010b47e       0x16 C:/Users/h274519/ON_Semiconductor/ONSemiconductor/RSL10/3.0.534/lib/ble_core/Release/libblelib.a(llc_llcp.o)
                0x0010b47e                llc_llcp_ping_req_pdu_send
 .text.llc_llcp_ping_rsp_pdu_send
                0x0010b494       0x16 C:/Users/h274519/ON_Semiconductor/ONSemiconductor/RSL10/3.0.534/lib/ble_core/Release/libblelib.a(llc_llcp.o)
                0x0010b494                llc_llcp_ping_rsp_pdu_send
 *fill*         0x0010b4aa        0x2 
 .text.llcp_ping_req_handler
                0x0010b4ac       0x24 C:/Users/h274519/ON_Semiconductor/ONSemiconductor/RSL10/3.0.534/lib/ble_core/Release/libblelib.a(llc_llcp.o)
 .text.llc_llcp_length_req_pdu_send
                0x0010b4d0       0x40 C:/Users/h274519/ON_Semiconductor/ONSemiconductor/RSL10/3.0.534/lib/ble_core/Release/libblelib.a(llc_llcp.o)
                0x0010b4d0                llc_llcp_length_req_pdu_send
 .text.llc_llcp_length_rsp_pdu_send
                0x0010b510       0x40 C:/Users/h274519/ON_Semiconductor/ONSemiconductor/RSL10/3.0.534/lib/ble_core/Release/libblelib.a(llc_llcp.o)
                0x0010b510                llc_llcp_length_rsp_pdu_send
 .text.llcp_length_req_handler
                0x0010b550      0x104 C:/Users/h274519/ON_Semiconductor/ONSemiconductor/RSL10/3.0.534/lib/ble_core/Release/libblelib.a(llc_llcp.o)
 .text.llc_llcp_phy_req_pdu_send
                0x0010b654       0x22 C:/Users/h274519/ON_Semiconductor/ONSemiconductor/RSL10/3.0.534/lib/ble_core/Release/libblelib.a(llc_llcp.o)
                0x0010b654                llc_llcp_phy_req_pdu_send
 .text.llc_llcp_phy_rsp_pdu_send
                0x0010b676       0x22 C:/Users/h274519/ON_Semiconductor/ONSemiconductor/RSL10/3.0.534/lib/ble_core/Release/libblelib.a(llc_llcp.o)
                0x0010b676                llc_llcp_phy_rsp_pdu_send
 .text.llcp_phy_req_handler
                0x0010b698      0x198 C:/Users/h274519/ON_Semiconductor/ONSemiconductor/RSL10/3.0.534/lib/ble_core/Release/libblelib.a(llc_llcp.o)
 .text.llc_llcp_phy_upd_ind_pdu_send
                0x0010b830       0x28 C:/Users/h274519/ON_Semiconductor/ONSemiconductor/RSL10/3.0.534/lib/ble_core/Release/libblelib.a(llc_llcp.o)
                0x0010b830                llc_llcp_phy_upd_ind_pdu_send
 .text.llc_llcp_recv_handler
                0x0010b858       0x98 C:/Users/h274519/ON_Semiconductor/ONSemiconductor/RSL10/3.0.534/lib/ble_core/Release/libblelib.a(llc_llcp.o)
                0x0010b858                llc_llcp_recv_handler
 .text.llc_llcp_get_autorize
                0x0010b8f0       0x14 C:/Users/h274519/ON_Semiconductor/ONSemiconductor/RSL10/3.0.534/lib/ble_core/Release/libblelib.a(llc_llcp.o)
                0x0010b8f0                llc_llcp_get_autorize
 .text.llc_dft_handler
                0x0010b904        0x4 C:/Users/h274519/ON_Semiconductor/ONSemiconductor/RSL10/3.0.534/lib/ble_core/Release/libblelib.a(llc_task.o)
 .text.llm_enc_ind_handler
                0x0010b908       0xc8 C:/Users/h274519/ON_Semiconductor/ONSemiconductor/RSL10/3.0.534/lib/ble_core/Release/libblelib.a(llc_task.o)
 .text.llc_llcp_recv_ind_handler
                0x0010b9d0        0xc C:/Users/h274519/ON_Semiconductor/ONSemiconductor/RSL10/3.0.534/lib/ble_core/Release/libblelib.a(llc_task.o)
 .text.llc_phy_upd_req_ind_handler
                0x0010b9dc      0x3e0 C:/Users/h274519/ON_Semiconductor/ONSemiconductor/RSL10/3.0.534/lib/ble_core/Release/libblelib.a(llc_task.o)
 .text.llc_chmap_update_req_ind_handler
                0x0010bdbc       0x68 C:/Users/h274519/ON_Semiconductor/ONSemiconductor/RSL10/3.0.534/lib/ble_core/Release/libblelib.a(llc_task.o)
 .text.llc_auth_payl_real_to_ind_handler
                0x0010be24       0x5c C:/Users/h274519/ON_Semiconductor/ONSemiconductor/RSL10/3.0.534/lib/ble_core/Release/libblelib.a(llc_task.o)
 .text.llc_con_upd_req_ind_handler
                0x0010be80      0x22c C:/Users/h274519/ON_Semiconductor/ONSemiconductor/RSL10/3.0.534/lib/ble_core/Release/libblelib.a(llc_task.o)
 .text.llc_length_req_ind_handler
                0x0010c0ac       0x80 C:/Users/h274519/ON_Semiconductor/ONSemiconductor/RSL10/3.0.534/lib/ble_core/Release/libblelib.a(llc_task.o)
 .text.llc_task_random_gen_request
                0x0010c12c       0x32 C:/Users/h274519/ON_Semiconductor/ONSemiconductor/RSL10/3.0.534/lib/ble_core/Release/libblelib.a(llc_task.o)
 *fill*         0x0010c15e        0x2 
 .text.llc_enc_mgt_ind_handler
                0x0010c160      0x204 C:/Users/h274519/ON_Semiconductor/ONSemiconductor/RSL10/3.0.534/lib/ble_core/Release/libblelib.a(llc_task.o)
 .text.llc_chnl_assess_timer_handler
                0x0010c364       0x8c C:/Users/h274519/ON_Semiconductor/ONSemiconductor/RSL10/3.0.534/lib/ble_core/Release/libblelib.a(llc_task.o)
 .text.llc_llcp_rsp_to_ind_handler
                0x0010c3f0        0xe C:/Users/h274519/ON_Semiconductor/ONSemiconductor/RSL10/3.0.534/lib/ble_core/Release/libblelib.a(llc_task.o)
 .text.llc_link_sup_to_ind_handler
                0x0010c3fe       0x20 C:/Users/h274519/ON_Semiconductor/ONSemiconductor/RSL10/3.0.534/lib/ble_core/Release/libblelib.a(llc_task.o)
 *fill*         0x0010c41e        0x2 
 .text.llc_auth_payl_nearly_to_ind_handler
                0x0010c420       0x74 C:/Users/h274519/ON_Semiconductor/ONSemiconductor/RSL10/3.0.534/lib/ble_core/Release/libblelib.a(llc_task.o)
 .text.llc_data_ind_handler
                0x0010c494       0x58 C:/Users/h274519/ON_Semiconductor/ONSemiconductor/RSL10/3.0.534/lib/ble_core/Release/libblelib.a(llc_task.o)
 .text.lld_stop_ind_handler
                0x0010c4ec      0x120 C:/Users/h274519/ON_Semiconductor/ONSemiconductor/RSL10/3.0.534/lib/ble_core/Release/libblelib.a(llc_task.o)
 .text.llc_check_trafic_paused
                0x0010c60c       0x48 C:/Users/h274519/ON_Semiconductor/ONSemiconductor/RSL10/3.0.534/lib/ble_core/Release/libblelib.a(llc_util.o)
 .text.llc_util_get_free_conhdl
                0x0010c654       0x2a C:/Users/h274519/ON_Semiconductor/ONSemiconductor/RSL10/3.0.534/lib/ble_core/Release/libblelib.a(llc_util.o)
                0x0010c654                llc_util_get_free_conhdl
 .text.llc_util_get_nb_active_link
                0x0010c67e       0x28 C:/Users/h274519/ON_Semiconductor/ONSemiconductor/RSL10/3.0.534/lib/ble_core/Release/libblelib.a(llc_util.o)
                0x0010c67e                llc_util_get_nb_active_link
 *fill*         0x0010c6a6        0x2 
 .text.llc_util_dicon_procedure
                0x0010c6a8       0x3c C:/Users/h274519/ON_Semiconductor/ONSemiconductor/RSL10/3.0.534/lib/ble_core/Release/libblelib.a(llc_util.o)
                0x0010c6a8                llc_util_dicon_procedure
 .text.llc_util_update_channel_map
                0x0010c6e4       0x18 C:/Users/h274519/ON_Semiconductor/ONSemiconductor/RSL10/3.0.534/lib/ble_core/Release/libblelib.a(llc_util.o)
                0x0010c6e4                llc_util_update_channel_map
 .text.llc_util_set_auth_payl_to_margin
                0x0010c6fc       0x34 C:/Users/h274519/ON_Semiconductor/ONSemiconductor/RSL10/3.0.534/lib/ble_core/Release/libblelib.a(llc_util.o)
                0x0010c6fc                llc_util_set_auth_payl_to_margin
 .text.llc_util_clear_operation_ptr
                0x0010c730       0x20 C:/Users/h274519/ON_Semiconductor/ONSemiconductor/RSL10/3.0.534/lib/ble_core/Release/libblelib.a(llc_util.o)
                0x0010c730                llc_util_clear_operation_ptr
 .text.llc_util_bw_mgt
                0x0010c750       0x70 C:/Users/h274519/ON_Semiconductor/ONSemiconductor/RSL10/3.0.534/lib/ble_core/Release/libblelib.a(llc_util.o)
                0x0010c750                llc_util_bw_mgt
 .text.llc_end_evt_defer
                0x0010c7c0       0x50 C:/Users/h274519/ON_Semiconductor/ONSemiconductor/RSL10/3.0.534/lib/ble_core/Release/libblelib.a(llc_util.o)
                0x0010c7c0                llc_end_evt_defer
 .text.llc_pdu_llcp_tx_ack_defer
                0x0010c810       0xd4 C:/Users/h274519/ON_Semiconductor/ONSemiconductor/RSL10/3.0.534/lib/ble_core/Release/libblelib.a(llc_util.o)
                0x0010c810                llc_pdu_llcp_tx_ack_defer
 .text.llc_pdu_acl_tx_ack_defer
                0x0010c8e4       0x24 C:/Users/h274519/ON_Semiconductor/ONSemiconductor/RSL10/3.0.534/lib/ble_core/Release/libblelib.a(llc_util.o)
                0x0010c8e4                llc_pdu_acl_tx_ack_defer
 .text.llc_pdu_defer
                0x0010c908       0xd4 C:/Users/h274519/ON_Semiconductor/ONSemiconductor/RSL10/3.0.534/lib/ble_core/Release/libblelib.a(llc_util.o)
                0x0010c908                llc_pdu_defer
 .text.llc_start_enc_tx
                0x0010c9dc       0x64 C:/Users/h274519/ON_Semiconductor/ONSemiconductor/RSL10/3.0.534/lib/ble_core/Release/libblelib.a(llc_util.o)
                0x0010c9dc                llc_start_enc_tx
 .text.llc_start_enc_rx
                0x0010ca40       0x68 C:/Users/h274519/ON_Semiconductor/ONSemiconductor/RSL10/3.0.534/lib/ble_core/Release/libblelib.a(llc_util.o)
                0x0010ca40                llc_start_enc_rx
 .text.em_buf_init
                0x0010caa8       0xec C:/Users/h274519/ON_Semiconductor/ONSemiconductor/RSL10/3.0.534/lib/ble_core/Release/libblelib.a(em_buf.o)
                0x0010caa8                em_buf_init
 .text.em_buf_rx_free
                0x0010cb94       0x14 C:/Users/h274519/ON_Semiconductor/ONSemiconductor/RSL10/3.0.534/lib/ble_core/Release/libblelib.a(em_buf.o)
                0x0010cb94                em_buf_rx_free
 .text.em_buf_rx_buff_addr_get
                0x0010cba8       0x18 C:/Users/h274519/ON_Semiconductor/ONSemiconductor/RSL10/3.0.534/lib/ble_core/Release/libblelib.a(em_buf.o)
                0x0010cba8                em_buf_rx_buff_addr_get
 .text.em_buf_tx_free
                0x0010cbc0       0x64 C:/Users/h274519/ON_Semiconductor/ONSemiconductor/RSL10/3.0.534/lib/ble_core/Release/libblelib.a(em_buf.o)
                0x0010cbc0                em_buf_tx_free
 .text.rwble_hl_init
                0x0010cc24       0x1e C:/Users/h274519/ON_Semiconductor/ONSemiconductor/RSL10/3.0.534/lib/ble_core/Release/libblelib.a(rwble_hl.o)
                0x0010cc24                rwble_hl_init
 .text.rwble_hl_reset
                0x0010cc42       0x1e C:/Users/h274519/ON_Semiconductor/ONSemiconductor/RSL10/3.0.534/lib/ble_core/Release/libblelib.a(rwble_hl.o)
                0x0010cc42                rwble_hl_reset
 .text.l2cm_l2cap_tx_handler
                0x0010cc60       0x48 C:/Users/h274519/ON_Semiconductor/ONSemiconductor/RSL10/3.0.534/lib/ble_core/Release/libblelib.a(l2cm.o)
 .text.l2cm_init
                0x0010cca8       0x38 C:/Users/h274519/ON_Semiconductor/ONSemiconductor/RSL10/3.0.534/lib/ble_core/Release/libblelib.a(l2cm.o)
                0x0010cca8                l2cm_init
 .text.l2cm_create
                0x0010cce0        0x4 C:/Users/h274519/ON_Semiconductor/ONSemiconductor/RSL10/3.0.534/lib/ble_core/Release/libblelib.a(l2cm.o)
                0x0010cce0                l2cm_create
 .text.l2cm_set_link_layer_buff_size
                0x0010cce4       0x10 C:/Users/h274519/ON_Semiconductor/ONSemiconductor/RSL10/3.0.534/lib/ble_core/Release/libblelib.a(l2cm.o)
                0x0010cce4                l2cm_set_link_layer_buff_size
 .text.l2cm_get_nb_buffer_available
                0x0010ccf4        0xc C:/Users/h274519/ON_Semiconductor/ONSemiconductor/RSL10/3.0.534/lib/ble_core/Release/libblelib.a(l2cm.o)
                0x0010ccf4                l2cm_get_nb_buffer_available
 .text.l2cm_tx_status
                0x0010cd00       0x30 C:/Users/h274519/ON_Semiconductor/ONSemiconductor/RSL10/3.0.534/lib/ble_core/Release/libblelib.a(l2cm.o)
                0x0010cd00                l2cm_tx_status
 .text.l2cm_cleanup
                0x0010cd30       0x16 C:/Users/h274519/ON_Semiconductor/ONSemiconductor/RSL10/3.0.534/lib/ble_core/Release/libblelib.a(l2cm.o)
                0x0010cd30                l2cm_cleanup
 *fill*         0x0010cd46        0x2 
 .text.l2cc_create
                0x0010cd48       0x44 C:/Users/h274519/ON_Semiconductor/ONSemiconductor/RSL10/3.0.534/lib/ble_core/Release/libblelib.a(l2cc.o)
                0x0010cd48                l2cc_create
 .text.l2cc_update_state
                0x0010cd8c       0x2a C:/Users/h274519/ON_Semiconductor/ONSemiconductor/RSL10/3.0.534/lib/ble_core/Release/libblelib.a(l2cc.o)
                0x0010cd8c                l2cc_update_state
 *fill*         0x0010cdb6        0x2 
 .text.l2cc_send_complete_evt
                0x0010cdb8       0x60 C:/Users/h274519/ON_Semiconductor/ONSemiconductor/RSL10/3.0.534/lib/ble_core/Release/libblelib.a(l2cc.o)
                0x0010cdb8                l2cc_send_complete_evt
 .text.l2cc_send_error_evt
                0x0010ce18       0x2e C:/Users/h274519/ON_Semiconductor/ONSemiconductor/RSL10/3.0.534/lib/ble_core/Release/libblelib.a(l2cc.o)
                0x0010ce18                l2cc_send_error_evt
 *fill*         0x0010ce46        0x2 
 .text.l2cc_cleanup
                0x0010ce48       0xbc C:/Users/h274519/ON_Semiconductor/ONSemiconductor/RSL10/3.0.534/lib/ble_core/Release/libblelib.a(l2cc.o)
                0x0010ce48                l2cc_cleanup
 .text.l2cc_init
                0x0010cf04       0x3c C:/Users/h274519/ON_Semiconductor/ONSemiconductor/RSL10/3.0.534/lib/ble_core/Release/libblelib.a(l2cc.o)
                0x0010cf04                l2cc_init
 .text.l2cc_get_operation
                0x0010cf40       0x14 C:/Users/h274519/ON_Semiconductor/ONSemiconductor/RSL10/3.0.534/lib/ble_core/Release/libblelib.a(l2cc.o)
                0x0010cf40                l2cc_get_operation
 .text.l2cc_get_operation_ptr
                0x0010cf54       0x10 C:/Users/h274519/ON_Semiconductor/ONSemiconductor/RSL10/3.0.534/lib/ble_core/Release/libblelib.a(l2cc.o)
                0x0010cf54                l2cc_get_operation_ptr
 .text.l2cc_set_operation_ptr
                0x0010cf64       0x10 C:/Users/h274519/ON_Semiconductor/ONSemiconductor/RSL10/3.0.534/lib/ble_core/Release/libblelib.a(l2cc.o)
                0x0010cf64                l2cc_set_operation_ptr
 .text.l2cc_data_send
                0x0010cf74      0x24c C:/Users/h274519/ON_Semiconductor/ONSemiconductor/RSL10/3.0.534/lib/ble_core/Release/libblelib.a(l2cc.o)
                0x0010cf74                l2cc_data_send
 .text.l2cc_lecb_h2l_err
                0x0010d1c0       0x30 C:/Users/h274519/ON_Semiconductor/ONSemiconductor/RSL10/3.0.534/lib/ble_core/Release/libblelib.a(l2cc_lecb.o)
                0x0010d1c0                l2cc_lecb_h2l_err
 .text.l2cc_lecb_find
                0x0010d1f0       0x38 C:/Users/h274519/ON_Semiconductor/ONSemiconductor/RSL10/3.0.534/lib/ble_core/Release/libblelib.a(l2cc_lecb.o)
                0x0010d1f0                l2cc_lecb_find
 .text.l2cc_lecb_free
                0x0010d228       0xc4 C:/Users/h274519/ON_Semiconductor/ONSemiconductor/RSL10/3.0.534/lib/ble_core/Release/libblelib.a(l2cc_lecb.o)
                0x0010d228                l2cc_lecb_free
 .text.l2cc_lecb_init_disconnect
                0x0010d2ec       0x36 C:/Users/h274519/ON_Semiconductor/ONSemiconductor/RSL10/3.0.534/lib/ble_core/Release/libblelib.a(l2cc_lecb.o)
                0x0010d2ec                l2cc_lecb_init_disconnect
 .text.l2cc_lecb_send_con_req
                0x0010d322       0x54 C:/Users/h274519/ON_Semiconductor/ONSemiconductor/RSL10/3.0.534/lib/ble_core/Release/libblelib.a(l2cc_lecb.o)
                0x0010d322                l2cc_lecb_send_con_req
 .text.l2cc_lecb_send_con_rsp
                0x0010d376       0x42 C:/Users/h274519/ON_Semiconductor/ONSemiconductor/RSL10/3.0.534/lib/ble_core/Release/libblelib.a(l2cc_lecb.o)
                0x0010d376                l2cc_lecb_send_con_rsp
 .text.l2cc_lecb_send_disc_req
                0x0010d3b8       0x3a C:/Users/h274519/ON_Semiconductor/ONSemiconductor/RSL10/3.0.534/lib/ble_core/Release/libblelib.a(l2cc_lecb.o)
                0x0010d3b8                l2cc_lecb_send_disc_req
 .text.l2cc_lecb_send_disc_rsp
                0x0010d3f2       0x2a C:/Users/h274519/ON_Semiconductor/ONSemiconductor/RSL10/3.0.534/lib/ble_core/Release/libblelib.a(l2cc_lecb.o)
                0x0010d3f2                l2cc_lecb_send_disc_rsp
 .text.l2cc_lecb_send_credit_add
                0x0010d41c       0x2a C:/Users/h274519/ON_Semiconductor/ONSemiconductor/RSL10/3.0.534/lib/ble_core/Release/libblelib.a(l2cc_lecb.o)
                0x0010d41c                l2cc_lecb_send_credit_add
 *fill*         0x0010d446        0x2 
 .text.l2cc_lecb_pdu_pack
                0x0010d448       0x6c C:/Users/h274519/ON_Semiconductor/ONSemiconductor/RSL10/3.0.534/lib/ble_core/Release/libblelib.a(l2cc_pdu.o)
                0x0010d448                l2cc_lecb_pdu_pack
 .text.l2cc_lecb_pdu_unpack
                0x0010d4b4       0x88 C:/Users/h274519/ON_Semiconductor/ONSemiconductor/RSL10/3.0.534/lib/ble_core/Release/libblelib.a(l2cc_pdu.o)
                0x0010d4b4                l2cc_lecb_pdu_unpack
 .text.l2cc_pdu_pack
                0x0010d53c      0x2a0 C:/Users/h274519/ON_Semiconductor/ONSemiconductor/RSL10/3.0.534/lib/ble_core/Release/libblelib.a(l2cc_pdu.o)
                0x0010d53c                l2cc_pdu_pack
 .text.l2cc_pdu_unpack
                0x0010d7dc      0x280 C:/Users/h274519/ON_Semiconductor/ONSemiconductor/RSL10/3.0.534/lib/ble_core/Release/libblelib.a(l2cc_pdu.o)
                0x0010d7dc                l2cc_pdu_unpack
 .text.l2cc_pdu_rx_init
                0x0010da5c       0xbc C:/Users/h274519/ON_Semiconductor/ONSemiconductor/RSL10/3.0.534/lib/ble_core/Release/libblelib.a(l2cc_pdu.o)
                0x0010da5c                l2cc_pdu_rx_init
 .text.l2cc_pdu_header_check
                0x0010db18      0x2a4 C:/Users/h274519/ON_Semiconductor/ONSemiconductor/RSL10/3.0.534/lib/ble_core/Release/libblelib.a(l2cc_pdu.o)
                0x0010db18                l2cc_pdu_header_check
 .text.l2cc_default_msg_handler
                0x0010ddbc        0x4 C:/Users/h274519/ON_Semiconductor/ONSemiconductor/RSL10/3.0.534/lib/ble_core/Release/libblelib.a(l2cc_task.o)
 .text.l2cc_dbg_pdu_send_cmd_handler
                0x0010ddc0       0x3c C:/Users/h274519/ON_Semiconductor/ONSemiconductor/RSL10/3.0.534/lib/ble_core/Release/libblelib.a(l2cc_task.o)
 .text.l2cc_pdu_recv_ind_handler
                0x0010ddfc       0x6a C:/Users/h274519/ON_Semiconductor/ONSemiconductor/RSL10/3.0.534/lib/ble_core/Release/libblelib.a(l2cc_task.o)
 *fill*         0x0010de66        0x2 
 .text.hci_acl_data_rx_handler
                0x0010de68      0x124 C:/Users/h274519/ON_Semiconductor/ONSemiconductor/RSL10/3.0.534/lib/ble_core/Release/libblelib.a(l2cc_task.o)
 .text.l2cc_signaling_trans_to_ind_handler
                0x0010df8c       0x46 C:/Users/h274519/ON_Semiconductor/ONSemiconductor/RSL10/3.0.534/lib/ble_core/Release/libblelib.a(l2cc_task.o)
 *fill*         0x0010dfd2        0x2 
 .text.l2cc_lecb_sdu_send_cmd_handler
                0x0010dfd4       0x80 C:/Users/h274519/ON_Semiconductor/ONSemiconductor/RSL10/3.0.534/lib/ble_core/Release/libblelib.a(l2cc_task.o)
 .text.l2cc_pdu_send_cmd_handler
                0x0010e054       0x58 C:/Users/h274519/ON_Semiconductor/ONSemiconductor/RSL10/3.0.534/lib/ble_core/Release/libblelib.a(l2cc_task.o)
 .text.hci_nb_cmp_pkts_evt_handler
                0x0010e0ac       0x60 C:/Users/h274519/ON_Semiconductor/ONSemiconductor/RSL10/3.0.534/lib/ble_core/Release/libblelib.a(l2cc_task.o)
 .text.l2cc_lecb_connect_cfm_handler
                0x0010e10c      0x146 C:/Users/h274519/ON_Semiconductor/ONSemiconductor/RSL10/3.0.534/lib/ble_core/Release/libblelib.a(l2cc_task.o)
 .text.l2cc_process_op
                0x0010e252       0x8c C:/Users/h274519/ON_Semiconductor/ONSemiconductor/RSL10/3.0.534/lib/ble_core/Release/libblelib.a(l2cc_task.o)
                0x0010e252                l2cc_process_op
 .text.l2cc_lecb_disconnect_cmd_handler
                0x0010e2de       0x82 C:/Users/h274519/ON_Semiconductor/ONSemiconductor/RSL10/3.0.534/lib/ble_core/Release/libblelib.a(l2cc_task.o)
 .text.l2cc_lecb_add_cmd_handler
                0x0010e360       0x82 C:/Users/h274519/ON_Semiconductor/ONSemiconductor/RSL10/3.0.534/lib/ble_core/Release/libblelib.a(l2cc_task.o)
 *fill*         0x0010e3e2        0x2 
 .text.l2cc_lecb_connect_cmd_handler
                0x0010e3e4      0x134 C:/Users/h274519/ON_Semiconductor/ONSemiconductor/RSL10/3.0.534/lib/ble_core/Release/libblelib.a(l2cc_task.o)
 .text.l2cc_pdu_alloc
                0x0010e518       0x2a C:/Users/h274519/ON_Semiconductor/ONSemiconductor/RSL10/3.0.534/lib/ble_core/Release/libblelib.a(l2cc_task.o)
                0x0010e518                l2cc_pdu_alloc
 .text.l2cc_pdu_send
                0x0010e542        0x6 C:/Users/h274519/ON_Semiconductor/ONSemiconductor/RSL10/3.0.534/lib/ble_core/Release/libblelib.a(l2cc_task.o)
                0x0010e542                l2cc_pdu_send
 .text.gattm_svc_get_start_hdl
                0x0010e548        0xc C:/Users/h274519/ON_Semiconductor/ONSemiconductor/RSL10/3.0.534/lib/ble_core/Release/libblelib.a(gattm.o)
                0x0010e548                gattm_svc_get_start_hdl
 .text.gattm_init
                0x0010e554       0x24 C:/Users/h274519/ON_Semiconductor/ONSemiconductor/RSL10/3.0.534/lib/ble_core/Release/libblelib.a(gattm.o)
                0x0010e554                gattm_init
 .text.gattm_init_attr
                0x0010e578       0x6c C:/Users/h274519/ON_Semiconductor/ONSemiconductor/RSL10/3.0.534/lib/ble_core/Release/libblelib.a(gattm.o)
                0x0010e578                gattm_init_attr
 .text.gattm_create
                0x0010e5e4        0x4 C:/Users/h274519/ON_Semiconductor/ONSemiconductor/RSL10/3.0.534/lib/ble_core/Release/libblelib.a(gattm.o)
                0x0010e5e4                gattm_create
 .text.gattm_cleanup
                0x0010e5e8        0x6 C:/Users/h274519/ON_Semiconductor/ONSemiconductor/RSL10/3.0.534/lib/ble_core/Release/libblelib.a(gattm.o)
                0x0010e5e8                gattm_cleanup
 .text.gattm_default_msg_handler
                0x0010e5ee        0x4 C:/Users/h274519/ON_Semiconductor/ONSemiconductor/RSL10/3.0.534/lib/ble_core/Release/libblelib.a(gattm_task.o)
 .text.gattm_att_set_value_req_handler
                0x0010e5f2       0x2e C:/Users/h274519/ON_Semiconductor/ONSemiconductor/RSL10/3.0.534/lib/ble_core/Release/libblelib.a(gattm_task.o)
 .text.gattm_att_get_value_req_handler
                0x0010e620       0x56 C:/Users/h274519/ON_Semiconductor/ONSemiconductor/RSL10/3.0.534/lib/ble_core/Release/libblelib.a(gattm_task.o)
 .text.gattm_att_set_permission_req_handler
                0x0010e676       0x2c C:/Users/h274519/ON_Semiconductor/ONSemiconductor/RSL10/3.0.534/lib/ble_core/Release/libblelib.a(gattm_task.o)
 .text.gattm_att_get_permission_req_handler
                0x0010e6a2       0x46 C:/Users/h274519/ON_Semiconductor/ONSemiconductor/RSL10/3.0.534/lib/ble_core/Release/libblelib.a(gattm_task.o)
 .text.gattm_svc_set_permission_req_handler
                0x0010e6e8       0x2a C:/Users/h274519/ON_Semiconductor/ONSemiconductor/RSL10/3.0.534/lib/ble_core/Release/libblelib.a(gattm_task.o)
 .text.gattm_svc_get_permission_req_handler
                0x0010e712       0x2a C:/Users/h274519/ON_Semiconductor/ONSemiconductor/RSL10/3.0.534/lib/ble_core/Release/libblelib.a(gattm_task.o)
 .text.gattm_add_svc_req_handler
                0x0010e73c       0x28 C:/Users/h274519/ON_Semiconductor/ONSemiconductor/RSL10/3.0.534/lib/ble_core/Release/libblelib.a(gattm_task.o)
 .text.gattc_operation_cleanup
                0x0010e764       0x6c C:/Users/h274519/ON_Semiconductor/ONSemiconductor/RSL10/3.0.534/lib/ble_core/Release/libblelib.a(gattc.o)
 .text.gattc_get_mtu
                0x0010e7d0       0x10 C:/Users/h274519/ON_Semiconductor/ONSemiconductor/RSL10/3.0.534/lib/ble_core/Release/libblelib.a(gattc.o)
                0x0010e7d0                gattc_get_mtu
 .text.gattc_send_error_evt
                0x0010e7e0       0x2a C:/Users/h274519/ON_Semiconductor/ONSemiconductor/RSL10/3.0.534/lib/ble_core/Release/libblelib.a(gattc.o)
                0x0010e7e0                gattc_send_error_evt
 *fill*         0x0010e80a        0x2 
 .text.gattc_get_operation
                0x0010e80c       0x14 C:/Users/h274519/ON_Semiconductor/ONSemiconductor/RSL10/3.0.534/lib/ble_core/Release/libblelib.a(gattc.o)
                0x0010e80c                gattc_get_operation
 .text.gattc_set_mtu
                0x0010e820       0x68 C:/Users/h274519/ON_Semiconductor/ONSemiconductor/RSL10/3.0.534/lib/ble_core/Release/libblelib.a(gattc.o)
                0x0010e820                gattc_set_mtu
 .text.gattc_get_operation_ptr
                0x0010e888       0x10 C:/Users/h274519/ON_Semiconductor/ONSemiconductor/RSL10/3.0.534/lib/ble_core/Release/libblelib.a(gattc.o)
                0x0010e888                gattc_get_operation_ptr
 .text.gattc_set_operation_ptr
                0x0010e898       0x10 C:/Users/h274519/ON_Semiconductor/ONSemiconductor/RSL10/3.0.534/lib/ble_core/Release/libblelib.a(gattc.o)
                0x0010e898                gattc_set_operation_ptr
 .text.gattc_reschedule_operation
                0x0010e8a8       0x30 C:/Users/h274519/ON_Semiconductor/ONSemiconductor/RSL10/3.0.534/lib/ble_core/Release/libblelib.a(gattc.o)
                0x0010e8a8                gattc_reschedule_operation
 .text.gattc_get_requester
                0x0010e8d8       0x18 C:/Users/h274519/ON_Semiconductor/ONSemiconductor/RSL10/3.0.534/lib/ble_core/Release/libblelib.a(gattc.o)
                0x0010e8d8                gattc_get_requester
 .text.gattc_update_state
                0x0010e8f0       0x2a C:/Users/h274519/ON_Semiconductor/ONSemiconductor/RSL10/3.0.534/lib/ble_core/Release/libblelib.a(gattc.o)
                0x0010e8f0                gattc_update_state
 *fill*         0x0010e91a        0x2 
 .text.gattc_create
                0x0010e91c       0x84 C:/Users/h274519/ON_Semiconductor/ONSemiconductor/RSL10/3.0.534/lib/ble_core/Release/libblelib.a(gattc.o)
                0x0010e91c                gattc_create
 .text.gattc_con_enable
                0x0010e9a0       0x16 C:/Users/h274519/ON_Semiconductor/ONSemiconductor/RSL10/3.0.534/lib/ble_core/Release/libblelib.a(gattc.o)
                0x0010e9a0                gattc_con_enable
 *fill*         0x0010e9b6        0x2 
 .text.gattc_send_complete_evt
                0x0010e9b8       0x60 C:/Users/h274519/ON_Semiconductor/ONSemiconductor/RSL10/3.0.534/lib/ble_core/Release/libblelib.a(gattc.o)
                0x0010e9b8                gattc_send_complete_evt
 .text.gattc_cleanup
                0x0010ea18       0xa0 C:/Users/h274519/ON_Semiconductor/ONSemiconductor/RSL10/3.0.534/lib/ble_core/Release/libblelib.a(gattc.o)
                0x0010ea18                gattc_cleanup
 .text.gattc_init
                0x0010eab8       0x3c C:/Users/h274519/ON_Semiconductor/ONSemiconductor/RSL10/3.0.534/lib/ble_core/Release/libblelib.a(gattc.o)
                0x0010eab8                gattc_init
 .text.gattc_default_msg_handler
                0x0010eaf4        0xc C:/Users/h274519/ON_Semiconductor/ONSemiconductor/RSL10/3.0.534/lib/ble_core/Release/libblelib.a(gattc_task.o)
 .text.l2cc_cmp_evt_handler
                0x0010eb00       0x44 C:/Users/h274519/ON_Semiconductor/ONSemiconductor/RSL10/3.0.534/lib/ble_core/Release/libblelib.a(gattc_task.o)
 .text.l2cc_pdu_recv_ind_handler
                0x0010eb44       0x62 C:/Users/h274519/ON_Semiconductor/ONSemiconductor/RSL10/3.0.534/lib/ble_core/Release/libblelib.a(gattc_task.o)
 *fill*         0x0010eba6        0x2 
 .text.gapc_cmp_evt_handler
                0x0010eba8       0x3c C:/Users/h274519/ON_Semiconductor/ONSemiconductor/RSL10/3.0.534/lib/ble_core/Release/libblelib.a(gattc_task.o)
 .text.gattc_read_cfm_handler
                0x0010ebe4       0x40 C:/Users/h274519/ON_Semiconductor/ONSemiconductor/RSL10/3.0.534/lib/ble_core/Release/libblelib.a(gattc_task.o)
 .text.gattc_disc_char_desc_ind_handler
                0x0010ec24       0x68 C:/Users/h274519/ON_Semiconductor/ONSemiconductor/RSL10/3.0.534/lib/ble_core/Release/libblelib.a(gattc_task.o)
 .text.gattc_disc_char_ind_handler
                0x0010ec8c       0x88 C:/Users/h274519/ON_Semiconductor/ONSemiconductor/RSL10/3.0.534/lib/ble_core/Release/libblelib.a(gattc_task.o)
 .text.gattc_disc_svc_incl_ind_handler
                0x0010ed14       0x6c C:/Users/h274519/ON_Semiconductor/ONSemiconductor/RSL10/3.0.534/lib/ble_core/Release/libblelib.a(gattc_task.o)
 .text.gapc_sign_ind_handler
                0x0010ed80       0x8e C:/Users/h274519/ON_Semiconductor/ONSemiconductor/RSL10/3.0.534/lib/ble_core/Release/libblelib.a(gattc_task.o)
 .text.gattc_read_req_ind_handler
                0x0010ee0e       0x5a C:/Users/h274519/ON_Semiconductor/ONSemiconductor/RSL10/3.0.534/lib/ble_core/Release/libblelib.a(gattc_task.o)
 .text.gattc_write_req_ind_handler
                0x0010ee68       0x70 C:/Users/h274519/ON_Semiconductor/ONSemiconductor/RSL10/3.0.534/lib/ble_core/Release/libblelib.a(gattc_task.o)
 .text.gattc_process_op
                0x0010eed8       0x9c C:/Users/h274519/ON_Semiconductor/ONSemiconductor/RSL10/3.0.534/lib/ble_core/Release/libblelib.a(gattc_task.o)
 .text.gattc_send_evt_cmd_handler
                0x0010ef74       0x5c C:/Users/h274519/ON_Semiconductor/ONSemiconductor/RSL10/3.0.534/lib/ble_core/Release/libblelib.a(gattc_task.o)
 .text.gattc_send_svc_changed_cmd_handler
                0x0010efd0       0xae C:/Users/h274519/ON_Semiconductor/ONSemiconductor/RSL10/3.0.534/lib/ble_core/Release/libblelib.a(gattc_task.o)
 *fill*         0x0010f07e        0x2 
 .text.gattc_att_info_cfm_handler
                0x0010f080       0x5c C:/Users/h274519/ON_Semiconductor/ONSemiconductor/RSL10/3.0.534/lib/ble_core/Release/libblelib.a(gattc_task.o)
 .text.gattc_write_cfm_handler
                0x0010f0dc       0x8c C:/Users/h274519/ON_Semiconductor/ONSemiconductor/RSL10/3.0.534/lib/ble_core/Release/libblelib.a(gattc_task.o)
 .text.gattc_disc_svc_ind_handler
                0x0010f168       0x30 C:/Users/h274519/ON_Semiconductor/ONSemiconductor/RSL10/3.0.534/lib/ble_core/Release/libblelib.a(gattc_task.o)
 .text.gattc_cmp_evt_handler
                0x0010f198      0x174 C:/Users/h274519/ON_Semiconductor/ONSemiconductor/RSL10/3.0.534/lib/ble_core/Release/libblelib.a(gattc_task.o)
 .text.gattc_sdp_svc_disc_cmd_handler
                0x0010f30c       0xc0 C:/Users/h274519/ON_Semiconductor/ONSemiconductor/RSL10/3.0.534/lib/ble_core/Release/libblelib.a(gattc_task.o)
 .text.gattc_timeout_handler
                0x0010f3cc       0x6c C:/Users/h274519/ON_Semiconductor/ONSemiconductor/RSL10/3.0.534/lib/ble_core/Release/libblelib.a(gattc_task.o)
 .text.gattc_reg_to_peer_evt_cmd_handler
                0x0010f438       0xb0 C:/Users/h274519/ON_Semiconductor/ONSemiconductor/RSL10/3.0.534/lib/ble_core/Release/libblelib.a(gattc_task.o)
 .text.gattc_execute_write_cmd_handler
                0x0010f4e8       0x32 C:/Users/h274519/ON_Semiconductor/ONSemiconductor/RSL10/3.0.534/lib/ble_core/Release/libblelib.a(gattc_task.o)
 .text.gattc_event_cfm_handler
                0x0010f51a       0x18 C:/Users/h274519/ON_Semiconductor/ONSemiconductor/RSL10/3.0.534/lib/ble_core/Release/libblelib.a(gattc_task.o)
 *fill*         0x0010f532        0x2 
 .text.gattc_write_cmd_handler
                0x0010f534      0x1a4 C:/Users/h274519/ON_Semiconductor/ONSemiconductor/RSL10/3.0.534/lib/ble_core/Release/libblelib.a(gattc_task.o)
 .text.gattc_read_cmd_handler
                0x0010f6d8      0x128 C:/Users/h274519/ON_Semiconductor/ONSemiconductor/RSL10/3.0.534/lib/ble_core/Release/libblelib.a(gattc_task.o)
 .text.gattc_disc_cmd_handler
                0x0010f800      0x150 C:/Users/h274519/ON_Semiconductor/ONSemiconductor/RSL10/3.0.534/lib/ble_core/Release/libblelib.a(gattc_task.o)
 .text.gattc_exc_mtu_cmd_handler
                0x0010f950       0x68 C:/Users/h274519/ON_Semiconductor/ONSemiconductor/RSL10/3.0.534/lib/ble_core/Release/libblelib.a(gattc_task.o)
 .text.gattc_att_info_req_ind_handler
                0x0010f9b8       0x50 C:/Users/h274519/ON_Semiconductor/ONSemiconductor/RSL10/3.0.534/lib/ble_core/Release/libblelib.a(gattc_task.o)
 .text.atts_get_dest_task
                0x0010fa08       0x1a C:/Users/h274519/ON_Semiconductor/ONSemiconductor/RSL10/3.0.534/lib/ble_core/Release/libblelib.a(atts.o)
 .text.atts_check_length_and_offset
                0x0010fa22       0x2c C:/Users/h274519/ON_Semiconductor/ONSemiconductor/RSL10/3.0.534/lib/ble_core/Release/libblelib.a(atts.o)
 *fill*         0x0010fa4e        0x2 
 .text.atts_get_att_chk_perm.part.0
                0x0010fa50       0x94 C:/Users/h274519/ON_Semiconductor/ONSemiconductor/RSL10/3.0.534/lib/ble_core/Release/libblelib.a(atts.o)
 .text.atts_write_signed
                0x0010fae4       0x78 C:/Users/h274519/ON_Semiconductor/ONSemiconductor/RSL10/3.0.534/lib/ble_core/Release/libblelib.a(atts.o)
 .text.atts_update_elmt.constprop.6
                0x0010fb5c       0x42 C:/Users/h274519/ON_Semiconductor/ONSemiconductor/RSL10/3.0.534/lib/ble_core/Release/libblelib.a(atts.o)
 .text.atts_write_cmd
                0x0010fb9e       0x3e C:/Users/h274519/ON_Semiconductor/ONSemiconductor/RSL10/3.0.534/lib/ble_core/Release/libblelib.a(atts.o)
 .text.atts_send_error
                0x0010fbdc       0x2a C:/Users/h274519/ON_Semiconductor/ONSemiconductor/RSL10/3.0.534/lib/ble_core/Release/libblelib.a(atts.o)
                0x0010fbdc                atts_send_error
 *fill*         0x0010fc06        0x2 
 .text.atts_prepare_write_req
                0x0010fc08      0x134 C:/Users/h274519/ON_Semiconductor/ONSemiconductor/RSL10/3.0.534/lib/ble_core/Release/libblelib.a(atts.o)
 .text.atts_write_req
                0x0010fd3c       0x48 C:/Users/h274519/ON_Semiconductor/ONSemiconductor/RSL10/3.0.534/lib/ble_core/Release/libblelib.a(atts.o)
 .text.atts_find_info_req
                0x0010fd84      0x160 C:/Users/h274519/ON_Semiconductor/ONSemiconductor/RSL10/3.0.534/lib/ble_core/Release/libblelib.a(atts.o)
 .text.atts_mtu_exc_req
                0x0010fee4       0x60 C:/Users/h274519/ON_Semiconductor/ONSemiconductor/RSL10/3.0.534/lib/ble_core/Release/libblelib.a(atts.o)
 .text.atts_write_signed_cfm
                0x0010ff44       0x3e C:/Users/h274519/ON_Semiconductor/ONSemiconductor/RSL10/3.0.534/lib/ble_core/Release/libblelib.a(atts.o)
                0x0010ff44                atts_write_signed_cfm
 .text.atts_send_event
                0x0010ff82       0x92 C:/Users/h274519/ON_Semiconductor/ONSemiconductor/RSL10/3.0.534/lib/ble_core/Release/libblelib.a(atts.o)
                0x0010ff82                atts_send_event
 .text.atts_clear_prep_data
                0x00110014       0x20 C:/Users/h274519/ON_Semiconductor/ONSemiconductor/RSL10/3.0.534/lib/ble_core/Release/libblelib.a(atts.o)
                0x00110014                atts_clear_prep_data
 .text.atts_execute_write_req
                0x00110034      0x16c C:/Users/h274519/ON_Semiconductor/ONSemiconductor/RSL10/3.0.534/lib/ble_core/Release/libblelib.a(atts.o)
 .text.atts_clear_rsp_data
                0x001101a0       0x20 C:/Users/h274519/ON_Semiconductor/ONSemiconductor/RSL10/3.0.534/lib/ble_core/Release/libblelib.a(atts.o)
                0x001101a0                atts_clear_rsp_data
 .text.atts_clear_read_cache
                0x001101c0       0x24 C:/Users/h274519/ON_Semiconductor/ONSemiconductor/RSL10/3.0.534/lib/ble_core/Release/libblelib.a(atts.o)
                0x001101c0                atts_clear_read_cache
 .text.atts_get_value
                0x001101e4       0x78 C:/Users/h274519/ON_Semiconductor/ONSemiconductor/RSL10/3.0.534/lib/ble_core/Release/libblelib.a(atts.o)
 .text.atts_find_value_by_uuid
                0x0011025c      0x116 C:/Users/h274519/ON_Semiconductor/ONSemiconductor/RSL10/3.0.534/lib/ble_core/Release/libblelib.a(atts.o)
 *fill*         0x00110372        0x2 
 .text.atts_read_mult_req
                0x00110374      0x13c C:/Users/h274519/ON_Semiconductor/ONSemiconductor/RSL10/3.0.534/lib/ble_core/Release/libblelib.a(atts.o)
 .text.atts_read_blob_req
                0x001104b0       0xc4 C:/Users/h274519/ON_Semiconductor/ONSemiconductor/RSL10/3.0.534/lib/ble_core/Release/libblelib.a(atts.o)
 .text.atts_read_req
                0x00110574       0xa4 C:/Users/h274519/ON_Semiconductor/ONSemiconductor/RSL10/3.0.534/lib/ble_core/Release/libblelib.a(atts.o)
 .text.atts_read_by_grp_type_req
                0x00110618      0x1c0 C:/Users/h274519/ON_Semiconductor/ONSemiconductor/RSL10/3.0.534/lib/ble_core/Release/libblelib.a(atts.o)
 .text.atts_read_by_type_req
                0x001107d8      0x1b0 C:/Users/h274519/ON_Semiconductor/ONSemiconductor/RSL10/3.0.534/lib/ble_core/Release/libblelib.a(atts.o)
 .text.atts_find_by_type_req
                0x00110988      0x180 C:/Users/h274519/ON_Semiconductor/ONSemiconductor/RSL10/3.0.534/lib/ble_core/Release/libblelib.a(atts.o)
 .text.atts_write_rsp_send
                0x00110b08       0x2e C:/Users/h274519/ON_Semiconductor/ONSemiconductor/RSL10/3.0.534/lib/ble_core/Release/libblelib.a(atts.o)
                0x00110b08                atts_write_rsp_send
 *fill*         0x00110b36        0x2 
 .text.atts_process_pdu
                0x00110b38       0x68 C:/Users/h274519/ON_Semiconductor/ONSemiconductor/RSL10/3.0.534/lib/ble_core/Release/libblelib.a(atts.o)
                0x00110b38                atts_process_pdu
 .text.atts_l2cc_pdu_recv_handler
                0x00110ba0       0x94 C:/Users/h274519/ON_Semiconductor/ONSemiconductor/RSL10/3.0.534/lib/ble_core/Release/libblelib.a(atts.o)
                0x00110ba0                atts_l2cc_pdu_recv_handler
 .text.attm_convert_to128
                0x00110c34       0x5c C:/Users/h274519/ON_Semiconductor/ONSemiconductor/RSL10/3.0.534/lib/ble_core/Release/libblelib.a(attm.o)
                0x00110c34                attm_convert_to128
 .text.attm_uuid_comp
                0x00110c90       0x56 C:/Users/h274519/ON_Semiconductor/ONSemiconductor/RSL10/3.0.534/lib/ble_core/Release/libblelib.a(attm.o)
                0x00110c90                attm_uuid_comp
 .text.attm_uuid16_comp
                0x00110ce6       0x14 C:/Users/h274519/ON_Semiconductor/ONSemiconductor/RSL10/3.0.534/lib/ble_core/Release/libblelib.a(attm.o)
                0x00110ce6                attm_uuid16_comp
 *fill*         0x00110cfa        0x2 
 .text.attm_is_bt16_uuid
                0x00110cfc       0x38 C:/Users/h274519/ON_Semiconductor/ONSemiconductor/RSL10/3.0.534/lib/ble_core/Release/libblelib.a(attm.o)
                0x00110cfc                attm_is_bt16_uuid
 .text.attm_is_bt32_uuid
                0x00110d34       0x38 C:/Users/h274519/ON_Semiconductor/ONSemiconductor/RSL10/3.0.534/lib/ble_core/Release/libblelib.a(attm.o)
                0x00110d34                attm_is_bt32_uuid
 .text.attm_svc_create_db
                0x00110d6c      0x100 C:/Users/h274519/ON_Semiconductor/ONSemiconductor/RSL10/3.0.534/lib/ble_core/Release/libblelib.a(attm.o)
                0x00110d6c                attm_svc_create_db
 .text.attm_att_set_value
                0x00110e6c       0xb8 C:/Users/h274519/ON_Semiconductor/ONSemiconductor/RSL10/3.0.534/lib/ble_core/Release/libblelib.a(attm.o)
                0x00110e6c                attm_att_set_value
 .text.attm_get_value
                0x00110f24      0x15c C:/Users/h274519/ON_Semiconductor/ONSemiconductor/RSL10/3.0.534/lib/ble_core/Release/libblelib.a(attm.o)
                0x00110f24                attm_get_value
 .text.attm_att_set_permission
                0x00111080       0x7c C:/Users/h274519/ON_Semiconductor/ONSemiconductor/RSL10/3.0.534/lib/ble_core/Release/libblelib.a(attm.o)
                0x00111080                attm_att_set_permission
 .text.attm_att_update_perm
                0x001110fc       0x72 C:/Users/h274519/ON_Semiconductor/ONSemiconductor/RSL10/3.0.534/lib/ble_core/Release/libblelib.a(attm.o)
                0x001110fc                attm_att_update_perm
 .text.attm_svc_set_permission
                0x0011116e       0x20 C:/Users/h274519/ON_Semiconductor/ONSemiconductor/RSL10/3.0.534/lib/ble_core/Release/libblelib.a(attm.o)
                0x0011116e                attm_svc_set_permission
 .text.attm_svc_get_permission
                0x0011118e       0x1a C:/Users/h274519/ON_Semiconductor/ONSemiconductor/RSL10/3.0.534/lib/ble_core/Release/libblelib.a(attm.o)
                0x0011118e                attm_svc_get_permission
 .text.attm_init
                0x001111a8       0x14 C:/Users/h274519/ON_Semiconductor/ONSemiconductor/RSL10/3.0.534/lib/ble_core/Release/libblelib.a(attm.o)
                0x001111a8                attm_init
 .text.attmdb_svc_check_hdl
                0x001111bc       0x48 C:/Users/h274519/ON_Semiconductor/ONSemiconductor/RSL10/3.0.534/lib/ble_core/Release/libblelib.a(attm_db.o)
                0x001111bc                attmdb_svc_check_hdl
 .text.attmdb_add_service
                0x00111204      0x41c C:/Users/h274519/ON_Semiconductor/ONSemiconductor/RSL10/3.0.534/lib/ble_core/Release/libblelib.a(attm_db.o)
                0x00111204                attmdb_add_service
 .text.attmdb_destroy
                0x00111620       0x1c C:/Users/h274519/ON_Semiconductor/ONSemiconductor/RSL10/3.0.534/lib/ble_core/Release/libblelib.a(attm_db.o)
                0x00111620                attmdb_destroy
 .text.attmdb_get_service
                0x0011163c       0x54 C:/Users/h274519/ON_Semiconductor/ONSemiconductor/RSL10/3.0.534/lib/ble_core/Release/libblelib.a(attm_db.o)
                0x0011163c                attmdb_get_service
 .text.attmdb_get_attribute
                0x00111690       0x36 C:/Users/h274519/ON_Semiconductor/ONSemiconductor/RSL10/3.0.534/lib/ble_core/Release/libblelib.a(attm_db.o)
                0x00111690                attmdb_get_attribute
 *fill*         0x001116c6        0x2 
 .text.attmdb_get_next_att
                0x001116c8       0x70 C:/Users/h274519/ON_Semiconductor/ONSemiconductor/RSL10/3.0.534/lib/ble_core/Release/libblelib.a(attm_db.o)
                0x001116c8                attmdb_get_next_att
 .text.attmdb_uuid16_comp
                0x00111738       0x3a C:/Users/h274519/ON_Semiconductor/ONSemiconductor/RSL10/3.0.534/lib/ble_core/Release/libblelib.a(attm_db.o)
                0x00111738                attmdb_uuid16_comp
 .text.attmdb_get_max_len
                0x00111772       0x58 C:/Users/h274519/ON_Semiconductor/ONSemiconductor/RSL10/3.0.534/lib/ble_core/Release/libblelib.a(attm_db.o)
                0x00111772                attmdb_get_max_len
 .text.attmdb_get_uuid
                0x001117ca       0xbe C:/Users/h274519/ON_Semiconductor/ONSemiconductor/RSL10/3.0.534/lib/ble_core/Release/libblelib.a(attm_db.o)
                0x001117ca                attmdb_get_uuid
 .text.attmdb_att_get_permission
                0x00111888      0x10a C:/Users/h274519/ON_Semiconductor/ONSemiconductor/RSL10/3.0.534/lib/ble_core/Release/libblelib.a(attm_db.o)
                0x00111888                attmdb_att_get_permission
 *fill*         0x00111992        0x2 
 .text.attc_hdl_val_ntf_ind_handler
                0x00111994       0x74 C:/Users/h274519/ON_Semiconductor/ONSemiconductor/RSL10/3.0.534/lib/ble_core/Release/libblelib.a(attc.o)
 .text.attc_err_rsp_handler
                0x00111a08        0xe C:/Users/h274519/ON_Semiconductor/ONSemiconductor/RSL10/3.0.534/lib/ble_core/Release/libblelib.a(attc.o)
 .text.attc_exe_wr_rsp_handler
                0x00111a16       0x3a C:/Users/h274519/ON_Semiconductor/ONSemiconductor/RSL10/3.0.534/lib/ble_core/Release/libblelib.a(attc.o)
 .text.attc_rd_mult_rsp_handler
                0x00111a50       0xb6 C:/Users/h274519/ON_Semiconductor/ONSemiconductor/RSL10/3.0.534/lib/ble_core/Release/libblelib.a(attc.o)
 .text.attc_prep_wr_rsp_handler
                0x00111b06       0x6a C:/Users/h274519/ON_Semiconductor/ONSemiconductor/RSL10/3.0.534/lib/ble_core/Release/libblelib.a(attc.o)
 .text.attc_find_by_type_rsp_handler
                0x00111b70       0xb8 C:/Users/h274519/ON_Semiconductor/ONSemiconductor/RSL10/3.0.534/lib/ble_core/Release/libblelib.a(attc.o)
 .text.attc_find_info_rsp_handler
                0x00111c28       0xc4 C:/Users/h274519/ON_Semiconductor/ONSemiconductor/RSL10/3.0.534/lib/ble_core/Release/libblelib.a(attc.o)
 .text.attc_rd_by_grp_type_rsp_handler
                0x00111cec      0x112 C:/Users/h274519/ON_Semiconductor/ONSemiconductor/RSL10/3.0.534/lib/ble_core/Release/libblelib.a(attc.o)
 .text.attc_exc_mtu_rsp_handler
                0x00111dfe       0x3a C:/Users/h274519/ON_Semiconductor/ONSemiconductor/RSL10/3.0.534/lib/ble_core/Release/libblelib.a(attc.o)
 .text.attc_wr_rsp_handler
                0x00111e38       0x20 C:/Users/h274519/ON_Semiconductor/ONSemiconductor/RSL10/3.0.534/lib/ble_core/Release/libblelib.a(attc.o)
 .text.attc_send_att_req
                0x00111e58       0x2e C:/Users/h274519/ON_Semiconductor/ONSemiconductor/RSL10/3.0.534/lib/ble_core/Release/libblelib.a(attc.o)
                0x00111e58                attc_send_att_req
 .text.attc_send_hdl_cfm
                0x00111e86       0x24 C:/Users/h274519/ON_Semiconductor/ONSemiconductor/RSL10/3.0.534/lib/ble_core/Release/libblelib.a(attc.o)
                0x00111e86                attc_send_hdl_cfm
 .text.attc_send_execute
                0x00111eaa       0x28 C:/Users/h274519/ON_Semiconductor/ONSemiconductor/RSL10/3.0.534/lib/ble_core/Release/libblelib.a(attc.o)
                0x00111eaa                attc_send_execute
 *fill*         0x00111ed2        0x2 
 .text.attc_rd_by_type_rsp_handler
                0x00111ed4      0x2b8 C:/Users/h274519/ON_Semiconductor/ONSemiconductor/RSL10/3.0.534/lib/ble_core/Release/libblelib.a(attc.o)
 .text.attc_send_read_ind
                0x0011218c       0xe4 C:/Users/h274519/ON_Semiconductor/ONSemiconductor/RSL10/3.0.534/lib/ble_core/Release/libblelib.a(attc.o)
                0x0011218c                attc_send_read_ind
 .text.attc_rd_rsp_handler
                0x00112270      0x108 C:/Users/h274519/ON_Semiconductor/ONSemiconductor/RSL10/3.0.534/lib/ble_core/Release/libblelib.a(attc.o)
 .text.attc_l2cc_pdu_recv_handler
                0x00112378       0x50 C:/Users/h274519/ON_Semiconductor/ONSemiconductor/RSL10/3.0.534/lib/ble_core/Release/libblelib.a(attc.o)
                0x00112378                attc_l2cc_pdu_recv_handler
 .text.gapm_init_attr
                0x001123c8       0x38 C:/Users/h274519/ON_Semiconductor/ONSemiconductor/RSL10/3.0.534/lib/ble_core/Release/libblelib.a(gapm.o)
                0x001123c8                gapm_init_attr
 .text.gapm_get_operation
                0x00112400       0x10 C:/Users/h274519/ON_Semiconductor/ONSemiconductor/RSL10/3.0.534/lib/ble_core/Release/libblelib.a(gapm.o)
                0x00112400                gapm_get_operation
 .text.gapm_get_requester
                0x00112410       0x14 C:/Users/h274519/ON_Semiconductor/ONSemiconductor/RSL10/3.0.534/lib/ble_core/Release/libblelib.a(gapm.o)
                0x00112410                gapm_get_requester
 .text.gapm_reschedule_operation
                0x00112424       0x24 C:/Users/h274519/ON_Semiconductor/ONSemiconductor/RSL10/3.0.534/lib/ble_core/Release/libblelib.a(gapm.o)
                0x00112424                gapm_reschedule_operation
 .text.gapm_send_error_evt
                0x00112448       0x22 C:/Users/h274519/ON_Semiconductor/ONSemiconductor/RSL10/3.0.534/lib/ble_core/Release/libblelib.a(gapm.o)
                0x00112448                gapm_send_error_evt
 *fill*         0x0011246a        0x2 
 .text.gapm_act_start_send
                0x0011246c       0x6c C:/Users/h274519/ON_Semiconductor/ONSemiconductor/RSL10/3.0.534/lib/ble_core/Release/libblelib.a(gapm.o)
                0x0011246c                gapm_act_start_send
 .text.gapm_con_create
                0x001124d8       0x64 C:/Users/h274519/ON_Semiconductor/ONSemiconductor/RSL10/3.0.534/lib/ble_core/Release/libblelib.a(gapm.o)
                0x001124d8                gapm_con_create
 .text.gapm_con_enable
                0x0011253c        0xa C:/Users/h274519/ON_Semiconductor/ONSemiconductor/RSL10/3.0.534/lib/ble_core/Release/libblelib.a(gapm.o)
                0x0011253c                gapm_con_enable
 *fill*         0x00112546        0x2 
 .text.gapm_con_cleanup
                0x00112548       0x38 C:/Users/h274519/ON_Semiconductor/ONSemiconductor/RSL10/3.0.534/lib/ble_core/Release/libblelib.a(gapm.o)
                0x00112548                gapm_con_cleanup
 .text.gapm_is_disc_connection
                0x00112580       0x2c C:/Users/h274519/ON_Semiconductor/ONSemiconductor/RSL10/3.0.534/lib/ble_core/Release/libblelib.a(gapm.o)
                0x00112580                gapm_is_disc_connection
 .text.gapm_get_max_mtu
                0x001125ac        0xc C:/Users/h274519/ON_Semiconductor/ONSemiconductor/RSL10/3.0.534/lib/ble_core/Release/libblelib.a(gapm.o)
                0x001125ac                gapm_get_max_mtu
 .text.gapm_get_max_mps
                0x001125b8        0xc C:/Users/h274519/ON_Semiconductor/ONSemiconductor/RSL10/3.0.534/lib/ble_core/Release/libblelib.a(gapm.o)
                0x001125b8                gapm_get_max_mps
 .text.gapm_addr_check
                0x001125c4        0xa C:/Users/h274519/ON_Semiconductor/ONSemiconductor/RSL10/3.0.534/lib/ble_core/Release/libblelib.a(gapm.o)
                0x001125c4                gapm_addr_check
 .text.gapm_dle_val_check
                0x001125ce       0x1a C:/Users/h274519/ON_Semiconductor/ONSemiconductor/RSL10/3.0.534/lib/ble_core/Release/libblelib.a(gapm.o)
                0x001125ce                gapm_dle_val_check
 .text.gapm_get_local_public_key
                0x001125e8        0x8 C:/Users/h274519/ON_Semiconductor/ONSemiconductor/RSL10/3.0.534/lib/ble_core/Release/libblelib.a(gapm.o)
                0x001125e8                gapm_get_local_public_key
 .text.gapm_update_state
                0x001125f0       0x2e C:/Users/h274519/ON_Semiconductor/ONSemiconductor/RSL10/3.0.534/lib/ble_core/Release/libblelib.a(gapm.o)
                0x001125f0                gapm_update_state
 *fill*         0x0011261e        0x2 
 .text.gapm_operation_cleanup
                0x00112620       0x58 C:/Users/h274519/ON_Semiconductor/ONSemiconductor/RSL10/3.0.534/lib/ble_core/Release/libblelib.a(gapm.o)
 .text.gapm_send_complete_evt
                0x00112678       0x38 C:/Users/h274519/ON_Semiconductor/ONSemiconductor/RSL10/3.0.534/lib/ble_core/Release/libblelib.a(gapm.o)
                0x00112678                gapm_send_complete_evt
 .text.gapm_is_legacy_pairing_supp
                0x001126b0       0x10 C:/Users/h274519/ON_Semiconductor/ONSemiconductor/RSL10/3.0.534/lib/ble_core/Release/libblelib.a(gapm.o)
                0x001126b0                gapm_is_legacy_pairing_supp
 .text.gapm_is_sec_con_pairing_supp
                0x001126c0       0x10 C:/Users/h274519/ON_Semiconductor/ONSemiconductor/RSL10/3.0.534/lib/ble_core/Release/libblelib.a(gapm.o)
                0x001126c0                gapm_is_sec_con_pairing_supp
 .text.gapm_le_psm_find
                0x001126d0       0x18 C:/Users/h274519/ON_Semiconductor/ONSemiconductor/RSL10/3.0.534/lib/ble_core/Release/libblelib.a(gapm.o)
                0x001126d0                gapm_le_psm_find
 .text.gapm_le_psm_get_info
                0x001126e8       0x30 C:/Users/h274519/ON_Semiconductor/ONSemiconductor/RSL10/3.0.534/lib/ble_core/Release/libblelib.a(gapm.o)
                0x001126e8                gapm_le_psm_get_info
 .text.gapm_lecb_register
                0x00112718       0x34 C:/Users/h274519/ON_Semiconductor/ONSemiconductor/RSL10/3.0.534/lib/ble_core/Release/libblelib.a(gapm.o)
                0x00112718                gapm_lecb_register
 .text.gapm_lecb_unregister
                0x0011274c       0x24 C:/Users/h274519/ON_Semiconductor/ONSemiconductor/RSL10/3.0.534/lib/ble_core/Release/libblelib.a(gapm.o)
                0x0011274c                gapm_lecb_unregister
 .text.gapm_le_psm_cleanup
                0x00112770       0x20 C:/Users/h274519/ON_Semiconductor/ONSemiconductor/RSL10/3.0.534/lib/ble_core/Release/libblelib.a(gapm.o)
                0x00112770                gapm_le_psm_cleanup
 .text.gapm_init
                0x00112790       0x70 C:/Users/h274519/ON_Semiconductor/ONSemiconductor/RSL10/3.0.534/lib/ble_core/Release/libblelib.a(gapm.o)
                0x00112790                gapm_init
 .text.gapm_get_address_type
                0x00112800       0x10 C:/Users/h274519/ON_Semiconductor/ONSemiconductor/RSL10/3.0.534/lib/ble_core/Release/libblelib.a(gapm.o)
                0x00112800                gapm_get_address_type
 .text.gapm_is_pref_con_param_pres
                0x00112810       0x10 C:/Users/h274519/ON_Semiconductor/ONSemiconductor/RSL10/3.0.534/lib/ble_core/Release/libblelib.a(gapm.o)
                0x00112810                gapm_is_pref_con_param_pres
 .text.gapm_get_att_handle
                0x00112820       0x24 C:/Users/h274519/ON_Semiconductor/ONSemiconductor/RSL10/3.0.534/lib/ble_core/Release/libblelib.a(gapm.o)
                0x00112820                gapm_get_att_handle
 .text.gapm_svc_chg_en
                0x00112844       0x10 C:/Users/h274519/ON_Semiconductor/ONSemiconductor/RSL10/3.0.534/lib/ble_core/Release/libblelib.a(gapm.o)
                0x00112844                gapm_svc_chg_en
 .text.gapm_default_msg_handler
                0x00112854        0x4 C:/Users/h274519/ON_Semiconductor/ONSemiconductor/RSL10/3.0.534/lib/ble_core/Release/libblelib.a(gapm_task.o)
 .text.gapm_process_op
                0x00112858       0x68 C:/Users/h274519/ON_Semiconductor/ONSemiconductor/RSL10/3.0.534/lib/ble_core/Release/libblelib.a(gapm_task.o)
 .text.gapm_unknown_task_msg_handler
                0x001128c0       0x22 C:/Users/h274519/ON_Semiconductor/ONSemiconductor/RSL10/3.0.534/lib/ble_core/Release/libblelib.a(gapm_task.o)
 .text.gapm_cancel_cmd_handler
                0x001128e2       0x3e C:/Users/h274519/ON_Semiconductor/ONSemiconductor/RSL10/3.0.534/lib/ble_core/Release/libblelib.a(gapm_task.o)
 .text.gapm_connection_cfm_handler
                0x00112920       0x98 C:/Users/h274519/ON_Semiconductor/ONSemiconductor/RSL10/3.0.534/lib/ble_core/Release/libblelib.a(gapm_task.o)
 .text.gapm_start_connection_cmd_handler
                0x001129b8       0x60 C:/Users/h274519/ON_Semiconductor/ONSemiconductor/RSL10/3.0.534/lib/ble_core/Release/libblelib.a(gapm_task.o)
 .text.gapm_start_scan_cmd_handler
                0x00112a18       0x60 C:/Users/h274519/ON_Semiconductor/ONSemiconductor/RSL10/3.0.534/lib/ble_core/Release/libblelib.a(gapm_task.o)
 .text.gapm_start_advertise_cmd_handler
                0x00112a78       0x60 C:/Users/h274519/ON_Semiconductor/ONSemiconductor/RSL10/3.0.534/lib/ble_core/Release/libblelib.a(gapm_task.o)
 .text.gapm_gen_dh_key_cmd_handler
                0x00112ad8       0x2e C:/Users/h274519/ON_Semiconductor/ONSemiconductor/RSL10/3.0.534/lib/ble_core/Release/libblelib.a(gapm_task.o)
 *fill*         0x00112b06        0x2 
 .text.gapm_resolv_addr_cmd_handler
                0x00112b08       0x5c C:/Users/h274519/ON_Semiconductor/ONSemiconductor/RSL10/3.0.534/lib/ble_core/Release/libblelib.a(gapm_task.o)
 .text.gapm_power_save_ctrl_cmd_handler
                0x00112b64       0x54 C:/Users/h274519/ON_Semiconductor/ONSemiconductor/RSL10/3.0.534/lib/ble_core/Release/libblelib.a(gapm_task.o)
 .text.gapm_le_test_mode_ctrl_cmd_handler
                0x00112bb8       0x7c C:/Users/h274519/ON_Semiconductor/ONSemiconductor/RSL10/3.0.534/lib/ble_core/Release/libblelib.a(gapm_task.o)
 .text.gapm_lepsm_unregister_cmd_handler
                0x00112c34       0x54 C:/Users/h274519/ON_Semiconductor/ONSemiconductor/RSL10/3.0.534/lib/ble_core/Release/libblelib.a(gapm_task.o)
 .text.gapm_lepsm_register_cmd_handler
                0x00112c88       0x60 C:/Users/h274519/ON_Semiconductor/ONSemiconductor/RSL10/3.0.534/lib/ble_core/Release/libblelib.a(gapm_task.o)
 .text.gapm_set_irk_cmd_handler
                0x00112ce8       0x64 C:/Users/h274519/ON_Semiconductor/ONSemiconductor/RSL10/3.0.534/lib/ble_core/Release/libblelib.a(gapm_task.o)
 .text.gapm_ral_mgt_cmd_handler
                0x00112d4c      0x114 C:/Users/h274519/ON_Semiconductor/ONSemiconductor/RSL10/3.0.534/lib/ble_core/Release/libblelib.a(gapm_task.o)
 .text.gapm_white_list_mgt_cmd_handler
                0x00112e60       0x9c C:/Users/h274519/ON_Semiconductor/ONSemiconductor/RSL10/3.0.534/lib/ble_core/Release/libblelib.a(gapm_task.o)
 .text.gapm_get_dev_info_cmd_handler
                0x00112efc       0xb0 C:/Users/h274519/ON_Semiconductor/ONSemiconductor/RSL10/3.0.534/lib/ble_core/Release/libblelib.a(gapm_task.o)
 .text.gapm_profile_task_add_cmd_handler
                0x00112fac       0x60 C:/Users/h274519/ON_Semiconductor/ONSemiconductor/RSL10/3.0.534/lib/ble_core/Release/libblelib.a(gapm_task.o)
 .text.gapm_addr_renew_to_ind_handler
                0x0011300c       0x34 C:/Users/h274519/ON_Semiconductor/ONSemiconductor/RSL10/3.0.534/lib/ble_core/Release/libblelib.a(gapm_task.o)
 .text.gapm_cmp_evt_handler
                0x00113040       0x50 C:/Users/h274519/ON_Semiconductor/ONSemiconductor/RSL10/3.0.534/lib/ble_core/Release/libblelib.a(gapm_task.o)
 .text.gapc_cmp_evt_handler
                0x00113090       0x42 C:/Users/h274519/ON_Semiconductor/ONSemiconductor/RSL10/3.0.534/lib/ble_core/Release/libblelib.a(gapm_task.o)
 .text.gapm_lim_disc_to_ind_handler
                0x001130d2       0x1a C:/Users/h274519/ON_Semiconductor/ONSemiconductor/RSL10/3.0.534/lib/ble_core/Release/libblelib.a(gapm_task.o)
 .text.gapc_peer_att_info_ind_handler
                0x001130ec       0x6c C:/Users/h274519/ON_Semiconductor/ONSemiconductor/RSL10/3.0.534/lib/ble_core/Release/libblelib.a(gapm_task.o)
 .text.gapm_update_advertise_data_cmd_handler
                0x00113158       0x4c C:/Users/h274519/ON_Semiconductor/ONSemiconductor/RSL10/3.0.534/lib/ble_core/Release/libblelib.a(gapm_task.o)
 .text.gapm_get_pub_key_cmd_handler
                0x001131a4       0x94 C:/Users/h274519/ON_Semiconductor/ONSemiconductor/RSL10/3.0.534/lib/ble_core/Release/libblelib.a(gapm_task.o)
 .text.gapm_use_enc_block_cmd_handler
                0x00113238       0x50 C:/Users/h274519/ON_Semiconductor/ONSemiconductor/RSL10/3.0.534/lib/ble_core/Release/libblelib.a(gapm_task.o)
 .text.gapm_gen_rand_addr_cmd_handler
                0x00113288       0x34 C:/Users/h274519/ON_Semiconductor/ONSemiconductor/RSL10/3.0.534/lib/ble_core/Release/libblelib.a(gapm_task.o)
 .text.gapm_set_channel_map_cmd_handler
                0x001132bc       0x5a C:/Users/h274519/ON_Semiconductor/ONSemiconductor/RSL10/3.0.534/lib/ble_core/Release/libblelib.a(gapm_task.o)
 *fill*         0x00113316        0x2 
 .text.gapm_set_dev_config_cmd_handler
                0x00113318      0x23c C:/Users/h274519/ON_Semiconductor/ONSemiconductor/RSL10/3.0.534/lib/ble_core/Release/libblelib.a(gapm_task.o)
 .text.gapm_reset_cmd_handler
                0x00113554       0x40 C:/Users/h274519/ON_Semiconductor/ONSemiconductor/RSL10/3.0.534/lib/ble_core/Release/libblelib.a(gapm_task.o)
 .text.gapm_scan_to_ind_handler
                0x00113594       0x1a C:/Users/h274519/ON_Semiconductor/ONSemiconductor/RSL10/3.0.534/lib/ble_core/Release/libblelib.a(gapm_task.o)
 *fill*         0x001135ae        0x2 
 .text.gapm_set_address_op
                0x001135b0       0x84 C:/Users/h274519/ON_Semiconductor/ONSemiconductor/RSL10/3.0.534/lib/ble_core/Release/libblelib.a(gapm_util.o)
 .text.gapm_update_address_op_state
                0x00113634       0x80 C:/Users/h274519/ON_Semiconductor/ONSemiconductor/RSL10/3.0.534/lib/ble_core/Release/libblelib.a(gapm_util.o)
 .text.gapm_adv_op_sanity
                0x001136b4      0x160 C:/Users/h274519/ON_Semiconductor/ONSemiconductor/RSL10/3.0.534/lib/ble_core/Release/libblelib.a(gapm_util.o)
                0x001136b4                gapm_adv_op_sanity
 .text.gapm_set_adv_data
                0x00113814       0x8c C:/Users/h274519/ON_Semiconductor/ONSemiconductor/RSL10/3.0.534/lib/ble_core/Release/libblelib.a(gapm_util.o)
                0x00113814                gapm_set_adv_data
 .text.gapm_scan_op_sanity
                0x001138a0       0x60 C:/Users/h274519/ON_Semiconductor/ONSemiconductor/RSL10/3.0.534/lib/ble_core/Release/libblelib.a(gapm_util.o)
                0x001138a0                gapm_scan_op_sanity
 .text.gapm_connect_op_sanity
                0x00113900       0x9c C:/Users/h274519/ON_Semiconductor/ONSemiconductor/RSL10/3.0.534/lib/ble_core/Release/libblelib.a(gapm_util.o)
                0x00113900                gapm_connect_op_sanity
 .text.gapm_get_role
                0x0011399c        0xc C:/Users/h274519/ON_Semiconductor/ONSemiconductor/RSL10/3.0.534/lib/ble_core/Release/libblelib.a(gapm_util.o)
                0x0011399c                gapm_get_role
 .text.gapm_set_adv_mode
                0x001139a8       0x1e C:/Users/h274519/ON_Semiconductor/ONSemiconductor/RSL10/3.0.534/lib/ble_core/Release/libblelib.a(gapm_util.o)
                0x001139a8                gapm_set_adv_mode
 .text.gapm_set_scan_mode
                0x001139c6       0x22 C:/Users/h274519/ON_Semiconductor/ONSemiconductor/RSL10/3.0.534/lib/ble_core/Release/libblelib.a(gapm_util.o)
                0x001139c6                gapm_set_scan_mode
 .text.gapm_get_ad_type_flag
                0x001139e8       0x22 C:/Users/h274519/ON_Semiconductor/ONSemiconductor/RSL10/3.0.534/lib/ble_core/Release/libblelib.a(gapm_util.o)
                0x001139e8                gapm_get_ad_type_flag
 *fill*         0x00113a0a        0x2 
 .text.gapm_add_to_filter
                0x00113a0c       0x74 C:/Users/h274519/ON_Semiconductor/ONSemiconductor/RSL10/3.0.534/lib/ble_core/Release/libblelib.a(gapm_util.o)
                0x00113a0c                gapm_add_to_filter
 .text.gapm_is_filtered
                0x00113a80       0x44 C:/Users/h274519/ON_Semiconductor/ONSemiconductor/RSL10/3.0.534/lib/ble_core/Release/libblelib.a(gapm_util.o)
                0x00113a80                gapm_is_filtered
 .text.gapm_update_air_op_state
                0x00113ac4      0x318 C:/Users/h274519/ON_Semiconductor/ONSemiconductor/RSL10/3.0.534/lib/ble_core/Release/libblelib.a(gapm_util.o)
                0x00113ac4                gapm_update_air_op_state
 .text.gapm_get_irk
                0x00113ddc        0x8 C:/Users/h274519/ON_Semiconductor/ONSemiconductor/RSL10/3.0.534/lib/ble_core/Release/libblelib.a(gapm_util.o)
                0x00113ddc                gapm_get_irk
 .text.gapm_get_bdaddr
                0x00113de4        0x8 C:/Users/h274519/ON_Semiconductor/ONSemiconductor/RSL10/3.0.534/lib/ble_core/Release/libblelib.a(gapm_util.o)
                0x00113de4                gapm_get_bdaddr
 .text.gapm_basic_hci_cmd_send
                0x00113dec       0x18 C:/Users/h274519/ON_Semiconductor/ONSemiconductor/RSL10/3.0.534/lib/ble_core/Release/libblelib.a(gapm_util.o)
                0x00113dec                gapm_basic_hci_cmd_send
 .text.gapm_setup_conn
                0x00113e04       0x64 C:/Users/h274519/ON_Semiconductor/ONSemiconductor/RSL10/3.0.534/lib/ble_core/Release/libblelib.a(gapm_util.o)
                0x00113e04                gapm_setup_conn
 .text.gapm_get_adv_mode
                0x00113e68       0x1c C:/Users/h274519/ON_Semiconductor/ONSemiconductor/RSL10/3.0.534/lib/ble_core/Release/libblelib.a(gapm_util.o)
                0x00113e68                gapm_get_adv_mode
 .text.gapm_get_local_addrtype
                0x00113e84       0x24 C:/Users/h274519/ON_Semiconductor/ONSemiconductor/RSL10/3.0.534/lib/ble_core/Release/libblelib.a(gapm_util.o)
                0x00113e84                gapm_get_local_addrtype
 .text.gapm_execute_adv_op
                0x00113ea8      0x178 C:/Users/h274519/ON_Semiconductor/ONSemiconductor/RSL10/3.0.534/lib/ble_core/Release/libblelib.a(gapm_util.o)
                0x00113ea8                gapm_execute_adv_op
 .text.gapm_execute_scan_op
                0x00114020       0xac C:/Users/h274519/ON_Semiconductor/ONSemiconductor/RSL10/3.0.534/lib/ble_core/Release/libblelib.a(gapm_util.o)
                0x00114020                gapm_execute_scan_op
 .text.gapm_execute_connect_op
                0x001140cc      0x1ac C:/Users/h274519/ON_Semiconductor/ONSemiconductor/RSL10/3.0.534/lib/ble_core/Release/libblelib.a(gapm_util.o)
                0x001140cc                gapm_execute_connect_op
 .text.gapm_op_reset_continue
                0x00114278       0xb2 C:/Users/h274519/ON_Semiconductor/ONSemiconductor/RSL10/3.0.534/lib/ble_core/Release/libblelib.a(gapm_util.o)
                0x00114278                gapm_op_reset_continue
 *fill*         0x0011432a        0x2 
 .text.gapm_op_setup_continue
                0x0011432c      0x190 C:/Users/h274519/ON_Semiconductor/ONSemiconductor/RSL10/3.0.534/lib/ble_core/Release/libblelib.a(gapm_util.o)
                0x0011432c                gapm_op_setup_continue
 .text.gapc_operation_cleanup
                0x001144bc       0xec C:/Users/h274519/ON_Semiconductor/ONSemiconductor/RSL10/3.0.534/lib/ble_core/Release/libblelib.a(gapc.o)
 .text.gapc_con_create
                0x001145a8      0x140 C:/Users/h274519/ON_Semiconductor/ONSemiconductor/RSL10/3.0.534/lib/ble_core/Release/libblelib.a(gapc.o)
                0x001145a8                gapc_con_create
 .text.gapc_send_disconect_ind
                0x001146e8       0x24 C:/Users/h274519/ON_Semiconductor/ONSemiconductor/RSL10/3.0.534/lib/ble_core/Release/libblelib.a(gapc.o)
                0x001146e8                gapc_send_disconect_ind
 .text.gapc_get_conidx
                0x0011470c       0x28 C:/Users/h274519/ON_Semiconductor/ONSemiconductor/RSL10/3.0.534/lib/ble_core/Release/libblelib.a(gapc.o)
                0x0011470c                gapc_get_conidx
 .text.gapc_get_conhdl
                0x00114734       0x1c C:/Users/h274519/ON_Semiconductor/ONSemiconductor/RSL10/3.0.534/lib/ble_core/Release/libblelib.a(gapc.o)
                0x00114734                gapc_get_conhdl
 .text.gapc_get_role
                0x00114750       0x20 C:/Users/h274519/ON_Semiconductor/ONSemiconductor/RSL10/3.0.534/lib/ble_core/Release/libblelib.a(gapc.o)
                0x00114750                gapc_get_role
 .text.gapc_get_bdaddr
                0x00114770       0x24 C:/Users/h274519/ON_Semiconductor/ONSemiconductor/RSL10/3.0.534/lib/ble_core/Release/libblelib.a(gapc.o)
                0x00114770                gapc_get_bdaddr
 .text.gapc_get_csrk
                0x00114794       0x20 C:/Users/h274519/ON_Semiconductor/ONSemiconductor/RSL10/3.0.534/lib/ble_core/Release/libblelib.a(gapc.o)
                0x00114794                gapc_get_csrk
 .text.gapc_get_sign_counter
                0x001147b4       0x20 C:/Users/h274519/ON_Semiconductor/ONSemiconductor/RSL10/3.0.534/lib/ble_core/Release/libblelib.a(gapc.o)
                0x001147b4                gapc_get_sign_counter
 .text.gapc_send_error_evt
                0x001147d4       0x24 C:/Users/h274519/ON_Semiconductor/ONSemiconductor/RSL10/3.0.534/lib/ble_core/Release/libblelib.a(gapc.o)
                0x001147d4                gapc_send_error_evt
 .text.gapc_get_operation
                0x001147f8       0x14 C:/Users/h274519/ON_Semiconductor/ONSemiconductor/RSL10/3.0.534/lib/ble_core/Release/libblelib.a(gapc.o)
                0x001147f8                gapc_get_operation
 .text.gapc_get_operation_ptr
                0x0011480c       0x10 C:/Users/h274519/ON_Semiconductor/ONSemiconductor/RSL10/3.0.534/lib/ble_core/Release/libblelib.a(gapc.o)
                0x0011480c                gapc_get_operation_ptr
 .text.gapc_set_operation_ptr
                0x0011481c       0x10 C:/Users/h274519/ON_Semiconductor/ONSemiconductor/RSL10/3.0.534/lib/ble_core/Release/libblelib.a(gapc.o)
                0x0011481c                gapc_set_operation_ptr
 .text.gapc_reschedule_operation
                0x0011482c       0x30 C:/Users/h274519/ON_Semiconductor/ONSemiconductor/RSL10/3.0.534/lib/ble_core/Release/libblelib.a(gapc.o)
                0x0011482c                gapc_reschedule_operation
 .text.gapc_get_requester
                0x0011485c       0x18 C:/Users/h274519/ON_Semiconductor/ONSemiconductor/RSL10/3.0.534/lib/ble_core/Release/libblelib.a(gapc.o)
                0x0011485c                gapc_get_requester
 .text.gapc_is_sec_set
                0x00114874       0x44 C:/Users/h274519/ON_Semiconductor/ONSemiconductor/RSL10/3.0.534/lib/ble_core/Release/libblelib.a(gapc.o)
                0x00114874                gapc_is_sec_set
 .text.gapc_lk_sec_lvl_get
                0x001148b8       0x20 C:/Users/h274519/ON_Semiconductor/ONSemiconductor/RSL10/3.0.534/lib/ble_core/Release/libblelib.a(gapc.o)
                0x001148b8                gapc_lk_sec_lvl_get
 .text.gapc_enc_keysize_get
                0x001148d8       0x1c C:/Users/h274519/ON_Semiconductor/ONSemiconductor/RSL10/3.0.534/lib/ble_core/Release/libblelib.a(gapc.o)
                0x001148d8                gapc_enc_keysize_get
 .text.gapc_enc_keysize_set
                0x001148f4       0x18 C:/Users/h274519/ON_Semiconductor/ONSemiconductor/RSL10/3.0.534/lib/ble_core/Release/libblelib.a(gapc.o)
                0x001148f4                gapc_enc_keysize_set
 .text.gapc_link_encrypted
                0x0011490c       0x20 C:/Users/h274519/ON_Semiconductor/ONSemiconductor/RSL10/3.0.534/lib/ble_core/Release/libblelib.a(gapc.o)
                0x0011490c                gapc_link_encrypted
 .text.gapc_auth_set
                0x0011492c       0x58 C:/Users/h274519/ON_Semiconductor/ONSemiconductor/RSL10/3.0.534/lib/ble_core/Release/libblelib.a(gapc.o)
                0x0011492c                gapc_auth_set
 .text.gapc_auth_get
                0x00114984       0x38 C:/Users/h274519/ON_Semiconductor/ONSemiconductor/RSL10/3.0.534/lib/ble_core/Release/libblelib.a(gapc.o)
                0x00114984                gapc_auth_get
 .text.gapc_svc_chg_ccc_get
                0x001149bc       0x14 C:/Users/h274519/ON_Semiconductor/ONSemiconductor/RSL10/3.0.534/lib/ble_core/Release/libblelib.a(gapc.o)
                0x001149bc                gapc_svc_chg_ccc_get
 .text.gapc_svc_chg_ccc_set
                0x001149d0       0x20 C:/Users/h274519/ON_Semiconductor/ONSemiconductor/RSL10/3.0.534/lib/ble_core/Release/libblelib.a(gapc.o)
                0x001149d0                gapc_svc_chg_ccc_set
 .text.gapc_update_state
                0x001149f0       0x3c C:/Users/h274519/ON_Semiconductor/ONSemiconductor/RSL10/3.0.534/lib/ble_core/Release/libblelib.a(gapc.o)
                0x001149f0                gapc_update_state
 .text.gapc_send_complete_evt
                0x00114a2c       0x5c C:/Users/h274519/ON_Semiconductor/ONSemiconductor/RSL10/3.0.534/lib/ble_core/Release/libblelib.a(gapc.o)
                0x00114a2c                gapc_send_complete_evt
 .text.gapc_cleanup
                0x00114a88       0x7c C:/Users/h274519/ON_Semiconductor/ONSemiconductor/RSL10/3.0.534/lib/ble_core/Release/libblelib.a(gapc.o)
 .text.gapc_init
                0x00114b04       0x38 C:/Users/h274519/ON_Semiconductor/ONSemiconductor/RSL10/3.0.534/lib/ble_core/Release/libblelib.a(gapc.o)
                0x00114b04                gapc_init
 .text.gapc_con_cleanup
                0x00114b3c       0x10 C:/Users/h274519/ON_Semiconductor/ONSemiconductor/RSL10/3.0.534/lib/ble_core/Release/libblelib.a(gapc.o)
                0x00114b3c                gapc_con_cleanup
 .text.gapc_param_update_sanity
                0x00114b4c       0x32 C:/Users/h274519/ON_Semiconductor/ONSemiconductor/RSL10/3.0.534/lib/ble_core/Release/libblelib.a(gapc.o)
                0x00114b4c                gapc_param_update_sanity
 .text.gapc_default_msg_handler
                0x00114b7e        0x4 C:/Users/h274519/ON_Semiconductor/ONSemiconductor/RSL10/3.0.534/lib/ble_core/Release/libblelib.a(gapc_task.o)
 *fill*         0x00114b82        0x2 
 .text.gapc_smp_rep_attempts_timer_handler
                0x00114b84       0x30 C:/Users/h274519/ON_Semiconductor/ONSemiconductor/RSL10/3.0.534/lib/ble_core/Release/libblelib.a(gapc_task.o)
 .text.gapc_set_dev_info_cfm_handler
                0x00114bb4       0x4c C:/Users/h274519/ON_Semiconductor/ONSemiconductor/RSL10/3.0.534/lib/ble_core/Release/libblelib.a(gapc_task.o)
 .text.gapc_get_dev_info_cfm_handler
                0x00114c00       0xce C:/Users/h274519/ON_Semiconductor/ONSemiconductor/RSL10/3.0.534/lib/ble_core/Release/libblelib.a(gapc_task.o)
 .text.gapc_gen_dh_key_ind_handler
                0x00114cce       0x1c C:/Users/h274519/ON_Semiconductor/ONSemiconductor/RSL10/3.0.534/lib/ble_core/Release/libblelib.a(gapc_task.o)
 *fill*         0x00114cea        0x2 
 .text.gapc_smp_timeout_timer_ind_handler
                0x00114cec       0x44 C:/Users/h274519/ON_Semiconductor/ONSemiconductor/RSL10/3.0.534/lib/ble_core/Release/libblelib.a(gapc_task.o)
 .text.l2cc_cmp_evt_handler
                0x00114d30       0x3c C:/Users/h274519/ON_Semiconductor/ONSemiconductor/RSL10/3.0.534/lib/ble_core/Release/libblelib.a(gapc_task.o)
 .text.gapc_update_conn_param_to_ind_handler
                0x00114d6c       0x44 C:/Users/h274519/ON_Semiconductor/ONSemiconductor/RSL10/3.0.534/lib/ble_core/Release/libblelib.a(gapc_task.o)
 .text.gapm_use_enc_block_ind_handler
                0x00114db0       0x3e C:/Users/h274519/ON_Semiconductor/ONSemiconductor/RSL10/3.0.534/lib/ble_core/Release/libblelib.a(gapc_task.o)
 .text.gapm_gen_rand_nb_ind_handler
                0x00114dee       0x2a C:/Users/h274519/ON_Semiconductor/ONSemiconductor/RSL10/3.0.534/lib/ble_core/Release/libblelib.a(gapc_task.o)
 .text.gapc_encrypt_cfm_handler
                0x00114e18       0x34 C:/Users/h274519/ON_Semiconductor/ONSemiconductor/RSL10/3.0.534/lib/ble_core/Release/libblelib.a(gapc_task.o)
 .text.gapc_bond_cfm_handler
                0x00114e4c       0xdc C:/Users/h274519/ON_Semiconductor/ONSemiconductor/RSL10/3.0.534/lib/ble_core/Release/libblelib.a(gapc_task.o)
 .text.l2cc_pdu_recv_ind_handler
                0x00114f28       0x66 C:/Users/h274519/ON_Semiconductor/ONSemiconductor/RSL10/3.0.534/lib/ble_core/Release/libblelib.a(gapc_task.o)
 *fill*         0x00114f8e        0x2 
 .text.gapc_param_update_cfm_handler
                0x00114f90      0x100 C:/Users/h274519/ON_Semiconductor/ONSemiconductor/RSL10/3.0.534/lib/ble_core/Release/libblelib.a(gapc_task.o)
 .text.gattc_read_ind_handler
                0x00115090      0x110 C:/Users/h274519/ON_Semiconductor/ONSemiconductor/RSL10/3.0.534/lib/ble_core/Release/libblelib.a(gapc_task.o)
 .text.gattc_cmp_evt_handler
                0x001151a0       0x6c C:/Users/h274519/ON_Semiconductor/ONSemiconductor/RSL10/3.0.534/lib/ble_core/Release/libblelib.a(gapc_task.o)
 .text.gapc_connection_cfm_handler
                0x0011520c       0xc4 C:/Users/h274519/ON_Semiconductor/ONSemiconductor/RSL10/3.0.534/lib/ble_core/Release/libblelib.a(gapc_task.o)
 .text.gapc_disconnect_cmd_handler
                0x001152d0       0x7c C:/Users/h274519/ON_Semiconductor/ONSemiconductor/RSL10/3.0.534/lib/ble_core/Release/libblelib.a(gapc_task.o)
 .text.gattc_att_info_req_ind_handler
                0x0011534c       0x6c C:/Users/h274519/ON_Semiconductor/ONSemiconductor/RSL10/3.0.534/lib/ble_core/Release/libblelib.a(gapc_task.o)
 .text.gattc_write_req_ind_handler
                0x001153b8       0xd4 C:/Users/h274519/ON_Semiconductor/ONSemiconductor/RSL10/3.0.534/lib/ble_core/Release/libblelib.a(gapc_task.o)
 .text.gattc_read_req_ind_handler
                0x0011548c       0xb6 C:/Users/h274519/ON_Semiconductor/ONSemiconductor/RSL10/3.0.534/lib/ble_core/Release/libblelib.a(gapc_task.o)
 .text.gapm_cmp_evt_handler
                0x00115542       0x78 C:/Users/h274519/ON_Semiconductor/ONSemiconductor/RSL10/3.0.534/lib/ble_core/Release/libblelib.a(gapc_task.o)
 .text.gapc_process_op
                0x001155ba       0x8a C:/Users/h274519/ON_Semiconductor/ONSemiconductor/RSL10/3.0.534/lib/ble_core/Release/libblelib.a(gapc_task.o)
                0x001155ba                gapc_process_op
 .text.gapc_set_phy_cmd_handler
                0x00115644       0x66 C:/Users/h274519/ON_Semiconductor/ONSemiconductor/RSL10/3.0.534/lib/ble_core/Release/libblelib.a(gapc_task.o)
 .text.gapc_set_le_pkt_size_handler
                0x001156aa       0x52 C:/Users/h274519/ON_Semiconductor/ONSemiconductor/RSL10/3.0.534/lib/ble_core/Release/libblelib.a(gapc_task.o)
 .text.gapc_set_le_ping_to_handler
                0x001156fc       0x4e C:/Users/h274519/ON_Semiconductor/ONSemiconductor/RSL10/3.0.534/lib/ble_core/Release/libblelib.a(gapc_task.o)
 *fill*         0x0011574a        0x2 
 .text.gapc_key_press_notification_cmd_handler
                0x0011574c       0x78 C:/Users/h274519/ON_Semiconductor/ONSemiconductor/RSL10/3.0.534/lib/ble_core/Release/libblelib.a(gapc_task.o)
 .text.gapc_sign_cmd_handler
                0x001157c4       0x44 C:/Users/h274519/ON_Semiconductor/ONSemiconductor/RSL10/3.0.534/lib/ble_core/Release/libblelib.a(gapc_task.o)
 .text.gapc_security_cmd_handler
                0x00115808       0x4c C:/Users/h274519/ON_Semiconductor/ONSemiconductor/RSL10/3.0.534/lib/ble_core/Release/libblelib.a(gapc_task.o)
 .text.gapc_encrypt_cmd_handler
                0x00115854       0x60 C:/Users/h274519/ON_Semiconductor/ONSemiconductor/RSL10/3.0.534/lib/ble_core/Release/libblelib.a(gapc_task.o)
 .text.gapc_bond_cmd_handler
                0x001158b4       0x60 C:/Users/h274519/ON_Semiconductor/ONSemiconductor/RSL10/3.0.534/lib/ble_core/Release/libblelib.a(gapc_task.o)
 .text.gapc_set_pref_slave_latency_cmd_handler
                0x00115914       0x4e C:/Users/h274519/ON_Semiconductor/ONSemiconductor/RSL10/3.0.534/lib/ble_core/Release/libblelib.a(gapc_task.o)
 *fill*         0x00115962        0x2 
 .text.gapc_param_update_cmd_handler
                0x00115964      0x120 C:/Users/h274519/ON_Semiconductor/ONSemiconductor/RSL10/3.0.534/lib/ble_core/Release/libblelib.a(gapc_task.o)
 .text.gapc_get_info_cmd_handler
                0x00115a84      0x100 C:/Users/h274519/ON_Semiconductor/ONSemiconductor/RSL10/3.0.534/lib/ble_core/Release/libblelib.a(gapc_task.o)
 .text.AddBigHex256
                0x00115b84       0x4c C:/Users/h274519/ON_Semiconductor/ONSemiconductor/RSL10/3.0.534/lib/ble_core/Release/libblelib.a(ecc_p256.o)
                0x00115b84                AddBigHex256
 .text.Add2SelfBigHex256
                0x00115bd0       0x42 C:/Users/h274519/ON_Semiconductor/ONSemiconductor/RSL10/3.0.534/lib/ble_core/Release/libblelib.a(ecc_p256.o)
                0x00115bd0                Add2SelfBigHex256
 .text.SubtractBigHex256
                0x00115c12       0x62 C:/Users/h274519/ON_Semiconductor/ONSemiconductor/RSL10/3.0.534/lib/ble_core/Release/libblelib.a(ecc_p256.o)
                0x00115c12                SubtractBigHex256
 .text.SubtractFromSelfBigHex256
                0x00115c74       0x58 C:/Users/h274519/ON_Semiconductor/ONSemiconductor/RSL10/3.0.534/lib/ble_core/Release/libblelib.a(ecc_p256.o)
                0x00115c74                SubtractFromSelfBigHex256
 .text.AddP256  0x00115ccc       0x3c C:/Users/h274519/ON_Semiconductor/ONSemiconductor/RSL10/3.0.534/lib/ble_core/Release/libblelib.a(ecc_p256.o)
                0x00115ccc                AddP256
 .text.AddBigHexModP256
                0x00115d08       0x48 C:/Users/h274519/ON_Semiconductor/ONSemiconductor/RSL10/3.0.534/lib/ble_core/Release/libblelib.a(ecc_p256.o)
                0x00115d08                AddBigHexModP256
 .text.AddPdiv2_256
                0x00115d50      0x114 C:/Users/h274519/ON_Semiconductor/ONSemiconductor/RSL10/3.0.534/lib/ble_core/Release/libblelib.a(ecc_p256.o)
                0x00115d50                AddPdiv2_256
 .text.SubtractFromSelfBigHexSign256
                0x00115e64       0xcc C:/Users/h274519/ON_Semiconductor/ONSemiconductor/RSL10/3.0.534/lib/ble_core/Release/libblelib.a(ecc_p256.o)
                0x00115e64                SubtractFromSelfBigHexSign256
 .text.SubtractBigHexMod256
                0x00115f30       0xd4 C:/Users/h274519/ON_Semiconductor/ONSemiconductor/RSL10/3.0.534/lib/ble_core/Release/libblelib.a(ecc_p256.o)
                0x00115f30                SubtractBigHexMod256
 .text.MultiplyByU32ModP256
                0x00116004       0x2c C:/Users/h274519/ON_Semiconductor/ONSemiconductor/RSL10/3.0.534/lib/ble_core/Release/libblelib.a(ecc_p256.o)
                0x00116004                MultiplyByU32ModP256
 .text.specialModP256
                0x00116030       0xb4 C:/Users/h274519/ON_Semiconductor/ONSemiconductor/RSL10/3.0.534/lib/ble_core/Release/libblelib.a(ecc_p256.o)
                0x00116030                specialModP256
 .text.MultiplyBigHexModP256
                0x001160e4      0x15c C:/Users/h274519/ON_Semiconductor/ONSemiconductor/RSL10/3.0.534/lib/ble_core/Release/libblelib.a(ecc_p256.o)
                0x001160e4                MultiplyBigHexModP256
 .text.MultiplyBigHexByUint32_256
                0x00116240       0x40 C:/Users/h274519/ON_Semiconductor/ONSemiconductor/RSL10/3.0.534/lib/ble_core/Release/libblelib.a(ecc_p256.o)
                0x00116240                MultiplyBigHexByUint32_256
 .text.notEqual256
                0x00116280       0x20 C:/Users/h274519/ON_Semiconductor/ONSemiconductor/RSL10/3.0.534/lib/ble_core/Release/libblelib.a(ecc_p256.o)
                0x00116280                notEqual256
 .text.GF_Jacobian_Point_Double256
                0x001162a0      0x1a8 C:/Users/h274519/ON_Semiconductor/ONSemiconductor/RSL10/3.0.534/lib/ble_core/Release/libblelib.a(ecc_p256.o)
                0x001162a0                GF_Jacobian_Point_Double256
 .text.GF_Jacobian_Point_Addition256
                0x00116448      0x550 C:/Users/h274519/ON_Semiconductor/ONSemiconductor/RSL10/3.0.534/lib/ble_core/Release/libblelib.a(ecc_p256.o)
                0x00116448                GF_Jacobian_Point_Addition256
 .text.bigHexInversion256
                0x00116998      0x288 C:/Users/h274519/ON_Semiconductor/ONSemiconductor/RSL10/3.0.534/lib/ble_core/Release/libblelib.a(ecc_p256.o)
                0x00116998                bigHexInversion256
 .text.GF_Point_Jacobian_To_Affine256
                0x00116c20       0x2c C:/Users/h274519/ON_Semiconductor/ONSemiconductor/RSL10/3.0.534/lib/ble_core/Release/libblelib.a(ecc_p256.o)
                0x00116c20                GF_Point_Jacobian_To_Affine256
 .text.ecc_multiplication_event_handler
                0x00116c4c      0x5b0 C:/Users/h274519/ON_Semiconductor/ONSemiconductor/RSL10/3.0.534/lib/ble_core/Release/libblelib.a(ecc_p256.o)
 .text.ecc_init
                0x001171fc       0x48 C:/Users/h274519/ON_Semiconductor/ONSemiconductor/RSL10/3.0.534/lib/ble_core/Release/libblelib.a(ecc_p256.o)
                0x001171fc                ecc_init
 .text.ecc_generate_key256
                0x00117244      0x408 C:/Users/h274519/ON_Semiconductor/ONSemiconductor/RSL10/3.0.534/lib/ble_core/Release/libblelib.a(ecc_p256.o)
                0x00117244                ecc_generate_key256
 .text.ecc_gen_new_public_key
                0x0011764c       0x20 C:/Users/h274519/ON_Semiconductor/ONSemiconductor/RSL10/3.0.534/lib/ble_core/Release/libblelib.a(ecc_p256.o)
                0x0011764c                ecc_gen_new_public_key
 .text.ecc_gen_new_secret_key
                0x0011766c       0xc4 C:/Users/h274519/ON_Semiconductor/ONSemiconductor/RSL10/3.0.534/lib/ble_core/Release/libblelib.a(ecc_p256.o)
                0x0011766c                ecc_gen_new_secret_key
 .text.ea_conflict_check
                0x00117730       0xa4 C:/Users/h274519/ON_Semiconductor/ONSemiconductor/RSL10/3.0.534/lib/ble_core/Release/libblelib.a(ea.o)
 .text.ea_elt_cancel
                0x001177d4      0x118 C:/Users/h274519/ON_Semiconductor/ONSemiconductor/RSL10/3.0.534/lib/ble_core/Release/libblelib.a(ea.o)
                0x001177d4                ea_elt_cancel
 .text.ea_init  0x001178ec       0x2c C:/Users/h274519/ON_Semiconductor/ONSemiconductor/RSL10/3.0.534/lib/ble_core/Release/libblelib.a(ea.o)
                0x001178ec                ea_init
 .text.ea_elt_create
                0x00117918       0x1e C:/Users/h274519/ON_Semiconductor/ONSemiconductor/RSL10/3.0.534/lib/ble_core/Release/libblelib.a(ea.o)
                0x00117918                ea_elt_create
 .text.ea_interval_create
                0x00117936       0x18 C:/Users/h274519/ON_Semiconductor/ONSemiconductor/RSL10/3.0.534/lib/ble_core/Release/libblelib.a(ea.o)
                0x00117936                ea_interval_create
 *fill*         0x0011794e        0x2 
 .text.ea_interval_insert
                0x00117950        0xc C:/Users/h274519/ON_Semiconductor/ONSemiconductor/RSL10/3.0.534/lib/ble_core/Release/libblelib.a(ea.o)
                0x00117950                ea_interval_insert
 .text.ea_interval_remove
                0x0011795c       0x10 C:/Users/h274519/ON_Semiconductor/ONSemiconductor/RSL10/3.0.534/lib/ble_core/Release/libblelib.a(ea.o)
                0x0011795c                ea_interval_remove
 .text.ea_sw_isr
                0x0011796c       0x24 C:/Users/h274519/ON_Semiconductor/ONSemiconductor/RSL10/3.0.534/lib/ble_core/Release/libblelib.a(ea.o)
                0x0011796c                ea_sw_isr
 .text.ea_offset_req
                0x00117990      0x194 C:/Users/h274519/ON_Semiconductor/ONSemiconductor/RSL10/3.0.534/lib/ble_core/Release/libblelib.a(ea.o)
                0x00117990                ea_offset_req
 .text.ea_time_get_slot_rounded
                0x00117b24       0x28 C:/Users/h274519/ON_Semiconductor/ONSemiconductor/RSL10/3.0.534/lib/ble_core/Release/libblelib.a(ea.o)
                0x00117b24                ea_time_get_slot_rounded
 .text.ea_prog_timer
                0x00117b4c      0x108 C:/Users/h274519/ON_Semiconductor/ONSemiconductor/RSL10/3.0.534/lib/ble_core/Release/libblelib.a(ea.o)
 .text.ea_elt_insert
                0x00117c54      0x20c C:/Users/h274519/ON_Semiconductor/ONSemiconductor/RSL10/3.0.534/lib/ble_core/Release/libblelib.a(ea.o)
                0x00117c54                ea_elt_insert
 .text.ea_elt_remove
                0x00117e60       0x54 C:/Users/h274519/ON_Semiconductor/ONSemiconductor/RSL10/3.0.534/lib/ble_core/Release/libblelib.a(ea.o)
                0x00117e60                ea_elt_remove
 .text.ea_finetimer_isr
                0x00117eb4       0xd0 C:/Users/h274519/ON_Semiconductor/ONSemiconductor/RSL10/3.0.534/lib/ble_core/Release/libblelib.a(ea.o)
                0x00117eb4                ea_finetimer_isr
 .text.ea_interval_duration_req
                0x00117f84       0x9c C:/Users/h274519/ON_Semiconductor/ONSemiconductor/RSL10/3.0.534/lib/ble_core/Release/libblelib.a(ea.o)
                0x00117f84                ea_interval_duration_req
 .text.hci_le_power_save_ctrl_cmd_handler
                0x00118020       0x1e C:/Users/h274519/ON_Semiconductor/ONSemiconductor/RSL10/3.0.534/lib/ble_core/Release/libblelib.a(llm_hci.o)
 *fill*         0x0011803e        0x2 
 .text.hci_le_set_dft_phy_cmd_handler
                0x00118040       0x28 C:/Users/h274519/ON_Semiconductor/ONSemiconductor/RSL10/3.0.534/lib/ble_core/Release/libblelib.a(llm_hci.o)
 .text.hci_le_wr_suggted_dft_data_len_cmd_handler
                0x00118068       0x34 C:/Users/h274519/ON_Semiconductor/ONSemiconductor/RSL10/3.0.534/lib/ble_core/Release/libblelib.a(llm_hci.o)
 .text.hci_le_generate_dhkey_cmd_handler
                0x0011809c       0x3c C:/Users/h274519/ON_Semiconductor/ONSemiconductor/RSL10/3.0.534/lib/ble_core/Release/libblelib.a(llm_hci.o)
 .text.hci_rd_buff_size_cmd_handler
                0x001180d8       0x26 C:/Users/h274519/ON_Semiconductor/ONSemiconductor/RSL10/3.0.534/lib/ble_core/Release/libblelib.a(llm_hci.o)
 .text.hci_rd_local_ver_info_cmd_handler
                0x001180fe       0x32 C:/Users/h274519/ON_Semiconductor/ONSemiconductor/RSL10/3.0.534/lib/ble_core/Release/libblelib.a(llm_hci.o)
 .text.hci_le_rd_max_data_len_cmd_handler
                0x00118130       0x34 C:/Users/h274519/ON_Semiconductor/ONSemiconductor/RSL10/3.0.534/lib/ble_core/Release/libblelib.a(llm_hci.o)
 .text.hci_le_rd_suggted_dft_data_len_cmd_handler
                0x00118164       0x2c C:/Users/h274519/ON_Semiconductor/ONSemiconductor/RSL10/3.0.534/lib/ble_core/Release/libblelib.a(llm_hci.o)
 .text.hci_le_rd_wl_size_cmd_handler
                0x00118190       0x22 C:/Users/h274519/ON_Semiconductor/ONSemiconductor/RSL10/3.0.534/lib/ble_core/Release/libblelib.a(llm_hci.o)
 *fill*         0x001181b2        0x2 
 .text.hci_le_rd_adv_ch_tx_pw_cmd_handler
                0x001181b4       0x34 C:/Users/h274519/ON_Semiconductor/ONSemiconductor/RSL10/3.0.534/lib/ble_core/Release/libblelib.a(llm_hci.o)
 .text.hci_le_rd_buff_size_cmd_handler
                0x001181e8       0x2c C:/Users/h274519/ON_Semiconductor/ONSemiconductor/RSL10/3.0.534/lib/ble_core/Release/libblelib.a(llm_hci.o)
 .text.hci_le_enh_privacy_mgmt_cmd_handler
                0x00118214       0xb4 C:/Users/h274519/ON_Semiconductor/ONSemiconductor/RSL10/3.0.534/lib/ble_core/Release/libblelib.a(llm_hci.o)
 .text.hci_host_nb_cmp_pkts_cmd_handler
                0x001182c8       0x3a C:/Users/h274519/ON_Semiconductor/ONSemiconductor/RSL10/3.0.534/lib/ble_core/Release/libblelib.a(llm_hci.o)
 .text.hci_host_buf_size_cmd_handler
                0x00118302       0x1a C:/Users/h274519/ON_Semiconductor/ONSemiconductor/RSL10/3.0.534/lib/ble_core/Release/libblelib.a(llm_hci.o)
 .text.hci_set_evt_mask_page_2_cmd_handler
                0x0011831c       0x18 C:/Users/h274519/ON_Semiconductor/ONSemiconductor/RSL10/3.0.534/lib/ble_core/Release/libblelib.a(llm_hci.o)
 .text.hci_set_evt_mask_cmd_handler
                0x00118334       0x18 C:/Users/h274519/ON_Semiconductor/ONSemiconductor/RSL10/3.0.534/lib/ble_core/Release/libblelib.a(llm_hci.o)
 .text.hci_set_ctrl_to_host_flow_ctrl_cmd_handler
                0x0011834c       0x2c C:/Users/h274519/ON_Semiconductor/ONSemiconductor/RSL10/3.0.534/lib/ble_core/Release/libblelib.a(llm_hci.o)
 .text.hci_rd_local_supp_feats_cmd_handler
                0x00118378       0x2c C:/Users/h274519/ON_Semiconductor/ONSemiconductor/RSL10/3.0.534/lib/ble_core/Release/libblelib.a(llm_hci.o)
 .text.hci_rd_local_supp_cmds_cmd_handler
                0x001183a4       0x38 C:/Users/h274519/ON_Semiconductor/ONSemiconductor/RSL10/3.0.534/lib/ble_core/Release/libblelib.a(llm_hci.o)
 .text.hci_rd_bd_addr_cmd_handler
                0x001183dc       0x30 C:/Users/h274519/ON_Semiconductor/ONSemiconductor/RSL10/3.0.534/lib/ble_core/Release/libblelib.a(llm_hci.o)
 .text.hci_le_rd_supp_states_cmd_handler
                0x0011840c       0x30 C:/Users/h274519/ON_Semiconductor/ONSemiconductor/RSL10/3.0.534/lib/ble_core/Release/libblelib.a(llm_hci.o)
 .text.hci_le_rd_local_supp_feats_cmd_handler
                0x0011843c       0x30 C:/Users/h274519/ON_Semiconductor/ONSemiconductor/RSL10/3.0.534/lib/ble_core/Release/libblelib.a(llm_hci.o)
 .text.hci_le_set_evt_mask_cmd_handler
                0x0011846c       0x1c C:/Users/h274519/ON_Semiconductor/ONSemiconductor/RSL10/3.0.534/lib/ble_core/Release/libblelib.a(llm_hci.o)
 .text.hci_reset_cmd_handler
                0x00118488       0x14 C:/Users/h274519/ON_Semiconductor/ONSemiconductor/RSL10/3.0.534/lib/ble_core/Release/libblelib.a(llm_hci.o)
 .text.hci_le_test_mode_mngt_cmd_handler
                0x0011849c       0xbc C:/Users/h274519/ON_Semiconductor/ONSemiconductor/RSL10/3.0.534/lib/ble_core/Release/libblelib.a(llm_hci.o)
 .text.hci_le_rand_cmd_handler
                0x00118558       0x46 C:/Users/h274519/ON_Semiconductor/ONSemiconductor/RSL10/3.0.534/lib/ble_core/Release/libblelib.a(llm_hci.o)
 *fill*         0x0011859e        0x2 
 .text.hci_le_wl_mngt_cmd_handler
                0x001185a0       0x8c C:/Users/h274519/ON_Semiconductor/ONSemiconductor/RSL10/3.0.534/lib/ble_core/Release/libblelib.a(llm_hci.o)
 .text.hci_le_set_host_ch_class_cmd_handler
                0x0011862c       0x54 C:/Users/h274519/ON_Semiconductor/ONSemiconductor/RSL10/3.0.534/lib/ble_core/Release/libblelib.a(llm_hci.o)
 .text.hci_le_create_con_cancel_cmd_handler
                0x00118680       0x3c C:/Users/h274519/ON_Semiconductor/ONSemiconductor/RSL10/3.0.534/lib/ble_core/Release/libblelib.a(llm_hci.o)
 .text.hci_le_create_con_cmd_handler
                0x001186bc       0x44 C:/Users/h274519/ON_Semiconductor/ONSemiconductor/RSL10/3.0.534/lib/ble_core/Release/libblelib.a(llm_hci.o)
 .text.hci_le_set_scan_en_cmd_handler
                0x00118700       0x64 C:/Users/h274519/ON_Semiconductor/ONSemiconductor/RSL10/3.0.534/lib/ble_core/Release/libblelib.a(llm_hci.o)
 .text.hci_le_set_scan_param_cmd_handler
                0x00118764       0x26 C:/Users/h274519/ON_Semiconductor/ONSemiconductor/RSL10/3.0.534/lib/ble_core/Release/libblelib.a(llm_hci.o)
 *fill*         0x0011878a        0x2 
 .text.hci_le_set_scan_rsp_data_cmd_handler
                0x0011878c       0x5c C:/Users/h274519/ON_Semiconductor/ONSemiconductor/RSL10/3.0.534/lib/ble_core/Release/libblelib.a(llm_hci.o)
 .text.hci_le_set_adv_en_cmd_handler
                0x001187e8       0x5c C:/Users/h274519/ON_Semiconductor/ONSemiconductor/RSL10/3.0.534/lib/ble_core/Release/libblelib.a(llm_hci.o)
 .text.hci_le_set_adv_data_cmd_handler
                0x00118844       0x54 C:/Users/h274519/ON_Semiconductor/ONSemiconductor/RSL10/3.0.534/lib/ble_core/Release/libblelib.a(llm_hci.o)
 .text.hci_le_set_adv_param_cmd_handler
                0x00118898       0x26 C:/Users/h274519/ON_Semiconductor/ONSemiconductor/RSL10/3.0.534/lib/ble_core/Release/libblelib.a(llm_hci.o)
 *fill*         0x001188be        0x2 
 .text.hci_le_set_rand_add_cmd_handler
                0x001188c0       0x40 C:/Users/h274519/ON_Semiconductor/ONSemiconductor/RSL10/3.0.534/lib/ble_core/Release/libblelib.a(llm_hci.o)
 .text.hci_le_rd_local_p256_public_key_cmd_handler
                0x00118900       0x4c C:/Users/h274519/ON_Semiconductor/ONSemiconductor/RSL10/3.0.534/lib/ble_core/Release/libblelib.a(llm_hci.o)
 .text.hci_le_enh_privacy_info_cmd_handler
                0x0011894c       0x5e C:/Users/h274519/ON_Semiconductor/ONSemiconductor/RSL10/3.0.534/lib/ble_core/Release/libblelib.a(llm_hci.o)
 *fill*         0x001189aa        0x2 
 .text.hci_le_enc_cmd_handler
                0x001189ac       0x3c C:/Users/h274519/ON_Semiconductor/ONSemiconductor/RSL10/3.0.534/lib/ble_core/Release/libblelib.a(llm_hci.o)
 .text.hci_command_handler
                0x001189e8       0x30 C:/Users/h274519/ON_Semiconductor/ONSemiconductor/RSL10/3.0.534/lib/ble_core/Release/libblelib.a(llm_hci.o)
                0x001189e8                hci_command_handler
 .text.llc_ch_assess_local
                0x00118a18       0x58 C:/Users/h274519/ON_Semiconductor/ONSemiconductor/RSL10/3.0.534/lib/ble_core/Release/libblelib.a(llc_ch_asses.o)
                0x00118a18                llc_ch_assess_local
 .text.llc_ch_assess_get_local_ch_map
                0x00118a70       0x60 C:/Users/h274519/ON_Semiconductor/ONSemiconductor/RSL10/3.0.534/lib/ble_core/Release/libblelib.a(llc_ch_asses.o)
                0x00118a70                llc_ch_assess_get_local_ch_map
 .text.llc_ch_assess_get_current_ch_map
                0x00118ad0       0x10 C:/Users/h274519/ON_Semiconductor/ONSemiconductor/RSL10/3.0.534/lib/ble_core/Release/libblelib.a(llc_ch_asses.o)
                0x00118ad0                llc_ch_assess_get_current_ch_map
 .text.llc_ch_assess_reass_ch
                0x00118ae0       0x98 C:/Users/h274519/ON_Semiconductor/ONSemiconductor/RSL10/3.0.534/lib/ble_core/Release/libblelib.a(llc_ch_asses.o)
                0x00118ae0                llc_ch_assess_reass_ch
 .text.hci_le_ext_conn_accept_cmd_handler
                0x00118b78       0x38 C:/Users/h274519/ON_Semiconductor/ONSemiconductor/RSL10/3.0.534/lib/ble_core/Release/libblelib.a(llc_hci.o)
 .text.hci_vs_set_pref_slave_latency_cmd_handler
                0x00118bb0       0x1c C:/Users/h274519/ON_Semiconductor/ONSemiconductor/RSL10/3.0.534/lib/ble_core/Release/libblelib.a(llc_hci.o)
 .text.hci_le_set_phy_cmd_handler
                0x00118bcc       0x80 C:/Users/h274519/ON_Semiconductor/ONSemiconductor/RSL10/3.0.534/lib/ble_core/Release/libblelib.a(llc_hci.o)
 .text.hci_le_rd_phy_cmd_handler
                0x00118c4c       0x58 C:/Users/h274519/ON_Semiconductor/ONSemiconductor/RSL10/3.0.534/lib/ble_core/Release/libblelib.a(llc_hci.o)
 .text.hci_rd_auth_payl_to_cmd_handler
                0x00118ca4       0x50 C:/Users/h274519/ON_Semiconductor/ONSemiconductor/RSL10/3.0.534/lib/ble_core/Release/libblelib.a(llc_hci.o)
 .text.hci_rd_rssi_cmd_handler
                0x00118cf4       0x54 C:/Users/h274519/ON_Semiconductor/ONSemiconductor/RSL10/3.0.534/lib/ble_core/Release/libblelib.a(llc_hci.o)
 .text.hci_rd_tx_pwr_lvl_cmd_handler
                0x00118d48       0x78 C:/Users/h274519/ON_Semiconductor/ONSemiconductor/RSL10/3.0.534/lib/ble_core/Release/libblelib.a(llc_hci.o)
 .text.hci_le_set_data_len_cmd_handler
                0x00118dc0       0x84 C:/Users/h274519/ON_Semiconductor/ONSemiconductor/RSL10/3.0.534/lib/ble_core/Release/libblelib.a(llc_hci.o)
 .text.hci_le_rem_con_param_req_neg_reply_cmd_handler
                0x00118e44       0x74 C:/Users/h274519/ON_Semiconductor/ONSemiconductor/RSL10/3.0.534/lib/ble_core/Release/libblelib.a(llc_hci.o)
 .text.hci_le_rem_con_param_req_reply_cmd_handler
                0x00118eb8       0xec C:/Users/h274519/ON_Semiconductor/ONSemiconductor/RSL10/3.0.534/lib/ble_core/Release/libblelib.a(llc_hci.o)
 .text.hci_le_ltk_req_neg_reply_cmd_handler
                0x00118fa4       0x8c C:/Users/h274519/ON_Semiconductor/ONSemiconductor/RSL10/3.0.534/lib/ble_core/Release/libblelib.a(llc_hci.o)
 .text.hci_le_ltk_req_reply_cmd_handler
                0x00119030       0x8c C:/Users/h274519/ON_Semiconductor/ONSemiconductor/RSL10/3.0.534/lib/ble_core/Release/libblelib.a(llc_hci.o)
 .text.hci_le_rd_chnl_map_cmd_handler
                0x001190bc       0x54 C:/Users/h274519/ON_Semiconductor/ONSemiconductor/RSL10/3.0.534/lib/ble_core/Release/libblelib.a(llc_hci.o)
 .text.hci_le_start_enc_cmd_handler
                0x00119110       0xd0 C:/Users/h274519/ON_Semiconductor/ONSemiconductor/RSL10/3.0.534/lib/ble_core/Release/libblelib.a(llc_hci.o)
 .text.hci_le_rd_rem_used_feats_cmd_handler
                0x001191e0       0x94 C:/Users/h274519/ON_Semiconductor/ONSemiconductor/RSL10/3.0.534/lib/ble_core/Release/libblelib.a(llc_hci.o)
 .text.hci_le_con_update_cmd_handler
                0x00119274      0x14c C:/Users/h274519/ON_Semiconductor/ONSemiconductor/RSL10/3.0.534/lib/ble_core/Release/libblelib.a(llc_hci.o)
 .text.hci_wr_auth_payl_to_cmd_handler
                0x001193c0       0xac C:/Users/h274519/ON_Semiconductor/ONSemiconductor/RSL10/3.0.534/lib/ble_core/Release/libblelib.a(llc_hci.o)
 .text.hci_rd_rem_ver_info_cmd_handler
                0x0011946c       0x90 C:/Users/h274519/ON_Semiconductor/ONSemiconductor/RSL10/3.0.534/lib/ble_core/Release/libblelib.a(llc_hci.o)
 .text.hci_disconnect_cmd_handler
                0x001194fc       0xfc C:/Users/h274519/ON_Semiconductor/ONSemiconductor/RSL10/3.0.534/lib/ble_core/Release/libblelib.a(llc_hci.o)
 .text.llc_hci_command_handler
                0x001195f8       0x30 C:/Users/h274519/ON_Semiconductor/ONSemiconductor/RSL10/3.0.534/lib/ble_core/Release/libblelib.a(llc_hci.o)
                0x001195f8                llc_hci_command_handler
 .text.llc_hci_acl_data_tx_handler
                0x00119628       0x80 C:/Users/h274519/ON_Semiconductor/ONSemiconductor/RSL10/3.0.534/lib/ble_core/Release/libblelib.a(llc_hci.o)
                0x00119628                llc_hci_acl_data_tx_handler
 .text.l2c_code_le_flow_control_credit_handler
                0x001196a8       0x8c C:/Users/h274519/ON_Semiconductor/ONSemiconductor/RSL10/3.0.534/lib/ble_core/Release/libblelib.a(l2cc_sig.o)
 .text.l2c_code_le_cb_conn_resp_handler
                0x00119734       0xe8 C:/Users/h274519/ON_Semiconductor/ONSemiconductor/RSL10/3.0.534/lib/ble_core/Release/libblelib.a(l2cc_sig.o)
 .text.l2c_code_disconnection_resp_handler
                0x0011981c       0x52 C:/Users/h274519/ON_Semiconductor/ONSemiconductor/RSL10/3.0.534/lib/ble_core/Release/libblelib.a(l2cc_sig.o)
 *fill*         0x0011986e        0x2 
 .text.l2c_code_le_cb_conn_req_handler
                0x00119870      0x168 C:/Users/h274519/ON_Semiconductor/ONSemiconductor/RSL10/3.0.534/lib/ble_core/Release/libblelib.a(l2cc_sig.o)
 .text.l2c_code_disconnection_req_handler
                0x001199d8       0x3e C:/Users/h274519/ON_Semiconductor/ONSemiconductor/RSL10/3.0.534/lib/ble_core/Release/libblelib.a(l2cc_sig.o)
 *fill*         0x00119a16        0x2 
 .text.l2c_code_reject_handler
                0x00119a18       0xb4 C:/Users/h274519/ON_Semiconductor/ONSemiconductor/RSL10/3.0.534/lib/ble_core/Release/libblelib.a(l2cc_sig.o)
 .text.l2cc_sig_send_cmd_reject
                0x00119acc       0x60 C:/Users/h274519/ON_Semiconductor/ONSemiconductor/RSL10/3.0.534/lib/ble_core/Release/libblelib.a(l2cc_sig.o)
                0x00119acc                l2cc_sig_send_cmd_reject
 .text.l2c_code_conn_param_upd_resp_handler
                0x00119b2c       0x38 C:/Users/h274519/ON_Semiconductor/ONSemiconductor/RSL10/3.0.534/lib/ble_core/Release/libblelib.a(l2cc_sig.o)
 .text.l2c_code_conn_param_upd_req_handler
                0x00119b64       0x3a C:/Users/h274519/ON_Semiconductor/ONSemiconductor/RSL10/3.0.534/lib/ble_core/Release/libblelib.a(l2cc_sig.o)
 *fill*         0x00119b9e        0x2 
 .text.l2cc_sig_pdu_recv_handler
                0x00119ba0       0x44 C:/Users/h274519/ON_Semiconductor/ONSemiconductor/RSL10/3.0.534/lib/ble_core/Release/libblelib.a(l2cc_sig.o)
                0x00119ba0                l2cc_sig_pdu_recv_handler
 .text.smpm_send_gen_rand_nb_req
                0x00119be4       0x1a C:/Users/h274519/ON_Semiconductor/ONSemiconductor/RSL10/3.0.534/lib/ble_core/Release/libblelib.a(smpm_api.o)
 .text.smpm_gen_rand_addr
                0x00119bfe       0x18 C:/Users/h274519/ON_Semiconductor/ONSemiconductor/RSL10/3.0.534/lib/ble_core/Release/libblelib.a(smpm_api.o)
                0x00119bfe                smpm_gen_rand_addr
 .text.smpm_gen_rand_nb
                0x00119c16        0x4 C:/Users/h274519/ON_Semiconductor/ONSemiconductor/RSL10/3.0.534/lib/ble_core/Release/libblelib.a(smpm_api.o)
                0x00119c16                smpm_gen_rand_nb
 .text.smpm_send_encrypt_req
                0x00119c1a       0x48 C:/Users/h274519/ON_Semiconductor/ONSemiconductor/RSL10/3.0.534/lib/ble_core/Release/libblelib.a(smpm_api.o)
                0x00119c1a                smpm_send_encrypt_req
 .text.smpm_resolv_addr
                0x00119c62       0x2e C:/Users/h274519/ON_Semiconductor/ONSemiconductor/RSL10/3.0.534/lib/ble_core/Release/libblelib.a(smpm_api.o)
                0x00119c62                smpm_resolv_addr
 .text.smpm_use_enc_block
                0x00119c90        0x4 C:/Users/h274519/ON_Semiconductor/ONSemiconductor/RSL10/3.0.534/lib/ble_core/Release/libblelib.a(smpm_api.o)
                0x00119c90                smpm_use_enc_block
 .text.smpm_send_generate_dh_key
                0x00119c94       0x48 C:/Users/h274519/ON_Semiconductor/ONSemiconductor/RSL10/3.0.534/lib/ble_core/Release/libblelib.a(smpm_api.o)
                0x00119c94                smpm_send_generate_dh_key
 .text.smpc_send_use_enc_block_cmd
                0x00119cdc       0x50 C:/Users/h274519/ON_Semiconductor/ONSemiconductor/RSL10/3.0.534/lib/ble_core/Release/libblelib.a(smpc.o)
                0x00119cdc                smpc_send_use_enc_block_cmd
 .text.smpc_send_gen_dh_key_cmd
                0x00119d2c       0x50 C:/Users/h274519/ON_Semiconductor/ONSemiconductor/RSL10/3.0.534/lib/ble_core/Release/libblelib.a(smpc.o)
                0x00119d2c                smpc_send_gen_dh_key_cmd
 .text.smpc_send_start_enc_cmd
                0x00119d7c       0xa0 C:/Users/h274519/ON_Semiconductor/ONSemiconductor/RSL10/3.0.534/lib/ble_core/Release/libblelib.a(smpc.o)
                0x00119d7c                smpc_send_start_enc_cmd
 .text.smpc_send_ltk_req_rsp
                0x00119e1c       0x88 C:/Users/h274519/ON_Semiconductor/ONSemiconductor/RSL10/3.0.534/lib/ble_core/Release/libblelib.a(smpc.o)
                0x00119e1c                smpc_send_ltk_req_rsp
 .text.smpc_send_pairing_req_ind
                0x00119ea4      0x104 C:/Users/h274519/ON_Semiconductor/ONSemiconductor/RSL10/3.0.534/lib/ble_core/Release/libblelib.a(smpc.o)
                0x00119ea4                smpc_send_pairing_req_ind
 .text.smpc_send_pairing_ind
                0x00119fa8       0xd8 C:/Users/h274519/ON_Semiconductor/ONSemiconductor/RSL10/3.0.534/lib/ble_core/Release/libblelib.a(smpc.o)
                0x00119fa8                smpc_send_pairing_ind
 .text.smpc_check_pairing_feat
                0x0011a080       0x22 C:/Users/h274519/ON_Semiconductor/ONSemiconductor/RSL10/3.0.534/lib/ble_core/Release/libblelib.a(smpc.o)
                0x0011a080                smpc_check_pairing_feat
 *fill*         0x0011a0a2        0x2 
 .text.smpc_check_max_key_size
                0x0011a0a4       0x28 C:/Users/h274519/ON_Semiconductor/ONSemiconductor/RSL10/3.0.534/lib/ble_core/Release/libblelib.a(smpc.o)
                0x0011a0a4                smpc_check_max_key_size
 .text.smpc_check_key_distrib
                0x0011a0cc       0x78 C:/Users/h274519/ON_Semiconductor/ONSemiconductor/RSL10/3.0.534/lib/ble_core/Release/libblelib.a(smpc.o)
                0x0011a0cc                smpc_check_key_distrib
 .text.smpc_xor
                0x0011a144       0x20 C:/Users/h274519/ON_Semiconductor/ONSemiconductor/RSL10/3.0.534/lib/ble_core/Release/libblelib.a(smpc.o)
                0x0011a144                smpc_xor
 .text.smpc_generate_l
                0x0011a164       0x7c C:/Users/h274519/ON_Semiconductor/ONSemiconductor/RSL10/3.0.534/lib/ble_core/Release/libblelib.a(smpc.o)
                0x0011a164                smpc_generate_l
 .text.smpc_generate_ci
                0x0011a1e0       0x7c C:/Users/h274519/ON_Semiconductor/ONSemiconductor/RSL10/3.0.534/lib/ble_core/Release/libblelib.a(smpc.o)
                0x0011a1e0                smpc_generate_ci
 .text.smpc_generate_rand
                0x0011a25c       0x30 C:/Users/h274519/ON_Semiconductor/ONSemiconductor/RSL10/3.0.534/lib/ble_core/Release/libblelib.a(smpc.o)
                0x0011a25c                smpc_generate_rand
 .text.smpc_get_next_passkey_bit
                0x0011a28c       0x30 C:/Users/h274519/ON_Semiconductor/ONSemiconductor/RSL10/3.0.534/lib/ble_core/Release/libblelib.a(smpc.o)
                0x0011a28c                smpc_get_next_passkey_bit
 .text.smpc_generate_e1
                0x0011a2bc       0xc8 C:/Users/h274519/ON_Semiconductor/ONSemiconductor/RSL10/3.0.534/lib/ble_core/Release/libblelib.a(smpc.o)
                0x0011a2bc                smpc_generate_e1
 .text.smpc_generate_cfm
                0x0011a384       0x90 C:/Users/h274519/ON_Semiconductor/ONSemiconductor/RSL10/3.0.534/lib/ble_core/Release/libblelib.a(smpc.o)
                0x0011a384                smpc_generate_cfm
 .text.smpc_generate_stk
                0x0011a414       0x4c C:/Users/h274519/ON_Semiconductor/ONSemiconductor/RSL10/3.0.534/lib/ble_core/Release/libblelib.a(smpc.o)
                0x0011a414                smpc_generate_stk
 .text.smpc_calc_subkeys
                0x0011a460       0x82 C:/Users/h274519/ON_Semiconductor/ONSemiconductor/RSL10/3.0.534/lib/ble_core/Release/libblelib.a(smpc.o)
                0x0011a460                smpc_calc_subkeys
 *fill*         0x0011a4e2        0x2 
 .text.smpc_clear_timeout_timer
                0x0011a4e4       0x38 C:/Users/h274519/ON_Semiconductor/ONSemiconductor/RSL10/3.0.534/lib/ble_core/Release/libblelib.a(smpc.o)
                0x0011a4e4                smpc_clear_timeout_timer
 .text.smpc_launch_rep_att_timer
                0x0011a51c       0x4c C:/Users/h274519/ON_Semiconductor/ONSemiconductor/RSL10/3.0.534/lib/ble_core/Release/libblelib.a(smpc.o)
                0x0011a51c                smpc_launch_rep_att_timer
 .text.smpc_check_repeated_attempts
                0x0011a568       0x60 C:/Users/h274519/ON_Semiconductor/ONSemiconductor/RSL10/3.0.534/lib/ble_core/Release/libblelib.a(smpc.o)
                0x0011a568                smpc_check_repeated_attempts
 .text.smpc_pairing_end
                0x0011a5c8       0x60 C:/Users/h274519/ON_Semiconductor/ONSemiconductor/RSL10/3.0.534/lib/ble_core/Release/libblelib.a(smpc.o)
                0x0011a5c8                smpc_pairing_end
 .text.smpc_get_key_sec_prop
                0x0011a628       0xd0 C:/Users/h274519/ON_Semiconductor/ONSemiconductor/RSL10/3.0.534/lib/ble_core/Release/libblelib.a(smpc.o)
                0x0011a628                smpc_get_key_sec_prop
 .text.smpc_is_sec_mode_reached
                0x0011a6f8       0x30 C:/Users/h274519/ON_Semiconductor/ONSemiconductor/RSL10/3.0.534/lib/ble_core/Release/libblelib.a(smpc.o)
                0x0011a6f8                smpc_is_sec_mode_reached
 .text.smpc_pdu_send
                0x0011a728       0x98 C:/Users/h274519/ON_Semiconductor/ONSemiconductor/RSL10/3.0.534/lib/ble_core/Release/libblelib.a(smpc.o)
                0x0011a728                smpc_pdu_send
 .text.smpc_tkdp_send_continue
                0x0011a7c0       0xe0 C:/Users/h274519/ON_Semiconductor/ONSemiconductor/RSL10/3.0.534/lib/ble_core/Release/libblelib.a(smpc.o)
                0x0011a7c0                smpc_tkdp_send_continue
 .text.smpc_tkdp_send_start
                0x0011a8a0       0x2c C:/Users/h274519/ON_Semiconductor/ONSemiconductor/RSL10/3.0.534/lib/ble_core/Release/libblelib.a(smpc.o)
                0x0011a8a0                smpc_tkdp_send_start
 .text.smpc_tkdp_rcp_continue
                0x0011a8cc       0x98 C:/Users/h274519/ON_Semiconductor/ONSemiconductor/RSL10/3.0.534/lib/ble_core/Release/libblelib.a(smpc.o)
                0x0011a8cc                smpc_tkdp_rcp_continue
 .text.smpc_tkdp_rcp_start
                0x0011a964       0x2c C:/Users/h274519/ON_Semiconductor/ONSemiconductor/RSL10/3.0.534/lib/ble_core/Release/libblelib.a(smpc.o)
                0x0011a964                smpc_tkdp_rcp_start
 .text.smpc_handle_enc_change_evt
                0x0011a990      0x124 C:/Users/h274519/ON_Semiconductor/ONSemiconductor/RSL10/3.0.534/lib/ble_core/Release/libblelib.a(smpc.o)
                0x0011a990                smpc_handle_enc_change_evt
 .text.smpc_pdu_recv
                0x0011aab4       0x5c C:/Users/h274519/ON_Semiconductor/ONSemiconductor/RSL10/3.0.534/lib/ble_core/Release/libblelib.a(smpc.o)
                0x0011aab4                smpc_pdu_recv
 .text.smpc_initiate_dhkey_check
                0x0011ab10       0xf4 C:/Users/h274519/ON_Semiconductor/ONSemiconductor/RSL10/3.0.534/lib/ble_core/Release/libblelib.a(smpc.o)
                0x0011ab10                smpc_initiate_dhkey_check
 .text.smpc_init_mac_key_calculation
                0x0011ac04       0xac C:/Users/h274519/ON_Semiconductor/ONSemiconductor/RSL10/3.0.534/lib/ble_core/Release/libblelib.a(smpc.o)
                0x0011ac04                smpc_init_mac_key_calculation
 .text.smpc_handle_dh_key_check_complete
                0x0011acb0       0x3c C:/Users/h274519/ON_Semiconductor/ONSemiconductor/RSL10/3.0.534/lib/ble_core/Release/libblelib.a(smpc.o)
                0x0011acb0                smpc_handle_dh_key_check_complete
 .text.smpc_initiate_dhkey_verification
                0x0011acec       0xe0 C:/Users/h274519/ON_Semiconductor/ONSemiconductor/RSL10/3.0.534/lib/ble_core/Release/libblelib.a(smpc.o)
                0x0011acec                smpc_initiate_dhkey_verification
 .text.smpc_secure_connections_enabled
                0x0011adcc       0x10 C:/Users/h274519/ON_Semiconductor/ONSemiconductor/RSL10/3.0.534/lib/ble_core/Release/libblelib.a(smpc.o)
                0x0011adcc                smpc_secure_connections_enabled
 .text.smpc_pairing_start
                0x0011addc       0xb4 C:/Users/h274519/ON_Semiconductor/ONSemiconductor/RSL10/3.0.534/lib/ble_core/Release/libblelib.a(smpc_api.o)
                0x0011addc                smpc_pairing_start
 .text.smpc_pairing_tk_exch
                0x0011ae90      0x10c C:/Users/h274519/ON_Semiconductor/ONSemiconductor/RSL10/3.0.534/lib/ble_core/Release/libblelib.a(smpc_api.o)
                0x0011ae90                smpc_pairing_tk_exch
 .text.smpc_pairing_ltk_exch
                0x0011af9c       0x74 C:/Users/h274519/ON_Semiconductor/ONSemiconductor/RSL10/3.0.534/lib/ble_core/Release/libblelib.a(smpc_api.o)
                0x0011af9c                smpc_pairing_ltk_exch
 .text.smpc_pairing_irk_exch
                0x0011b010       0x40 C:/Users/h274519/ON_Semiconductor/ONSemiconductor/RSL10/3.0.534/lib/ble_core/Release/libblelib.a(smpc_api.o)
                0x0011b010                smpc_pairing_irk_exch
 .text.smpc_pairing_oob_exch
                0x0011b050       0xc0 C:/Users/h274519/ON_Semiconductor/ONSemiconductor/RSL10/3.0.534/lib/ble_core/Release/libblelib.a(smpc_api.o)
                0x0011b050                smpc_pairing_oob_exch
 .text.smpc_pairing_nc_exch
                0x0011b110       0x54 C:/Users/h274519/ON_Semiconductor/ONSemiconductor/RSL10/3.0.534/lib/ble_core/Release/libblelib.a(smpc_api.o)
                0x0011b110                smpc_pairing_nc_exch
 .text.smpc_pairing_csrk_exch
                0x0011b164       0x50 C:/Users/h274519/ON_Semiconductor/ONSemiconductor/RSL10/3.0.534/lib/ble_core/Release/libblelib.a(smpc_api.o)
                0x0011b164                smpc_pairing_csrk_exch
 .text.smpc_pairing_rsp
                0x0011b1b4      0x134 C:/Users/h274519/ON_Semiconductor/ONSemiconductor/RSL10/3.0.534/lib/ble_core/Release/libblelib.a(smpc_api.o)
                0x0011b1b4                smpc_pairing_rsp
 .text.smpc_pairing_req_handler
                0x0011b2e8       0x48 C:/Users/h274519/ON_Semiconductor/ONSemiconductor/RSL10/3.0.534/lib/ble_core/Release/libblelib.a(smpc_api.o)
                0x0011b2e8                smpc_pairing_req_handler
 .text.smpc_security_req_send
                0x0011b330       0x5c C:/Users/h274519/ON_Semiconductor/ONSemiconductor/RSL10/3.0.534/lib/ble_core/Release/libblelib.a(smpc_api.o)
                0x0011b330                smpc_security_req_send
 .text.smpc_encrypt_start
                0x0011b38c       0x24 C:/Users/h274519/ON_Semiconductor/ONSemiconductor/RSL10/3.0.534/lib/ble_core/Release/libblelib.a(smpc_api.o)
                0x0011b38c                smpc_encrypt_start
 .text.smpc_encrypt_start_handler
                0x0011b3b0       0x34 C:/Users/h274519/ON_Semiconductor/ONSemiconductor/RSL10/3.0.534/lib/ble_core/Release/libblelib.a(smpc_api.o)
                0x0011b3b0                smpc_encrypt_start_handler
 .text.smpc_encrypt_cfm
                0x0011b3e4       0x34 C:/Users/h274519/ON_Semiconductor/ONSemiconductor/RSL10/3.0.534/lib/ble_core/Release/libblelib.a(smpc_api.o)
                0x0011b3e4                smpc_encrypt_cfm
 .text.smpc_sign_command
                0x0011b418       0xc0 C:/Users/h274519/ON_Semiconductor/ONSemiconductor/RSL10/3.0.534/lib/ble_core/Release/libblelib.a(smpc_api.o)
                0x0011b418                smpc_sign_command
 .text.smpc_sign_cont
                0x0011b4d8      0x1a4 C:/Users/h274519/ON_Semiconductor/ONSemiconductor/RSL10/3.0.534/lib/ble_core/Release/libblelib.a(smpc_api.o)
                0x0011b4d8                smpc_sign_cont
 .text.smpc_calc_confirm_cont
                0x0011b67c      0x58c C:/Users/h274519/ON_Semiconductor/ONSemiconductor/RSL10/3.0.534/lib/ble_core/Release/libblelib.a(smpc_api.o)
                0x0011b67c                smpc_calc_confirm_cont
 .text.smpc_confirm_gen_rand
                0x0011bc08      0x22c C:/Users/h274519/ON_Semiconductor/ONSemiconductor/RSL10/3.0.534/lib/ble_core/Release/libblelib.a(smpc_api.o)
                0x0011bc08                smpc_confirm_gen_rand
 .text.smpc_key_press_notification_ind
                0x0011be34       0x20 C:/Users/h274519/ON_Semiconductor/ONSemiconductor/RSL10/3.0.534/lib/ble_core/Release/libblelib.a(smpc_api.o)
                0x0011be34                smpc_key_press_notification_ind
 .text.smpc_f4_complete
                0x0011be54       0x30 C:/Users/h274519/ON_Semiconductor/ONSemiconductor/RSL10/3.0.534/lib/ble_core/Release/libblelib.a(smpc_crypto.o)
                0x0011be54                smpc_f4_complete
 .text.smpc_g2_complete
                0x0011be84       0x30 C:/Users/h274519/ON_Semiconductor/ONSemiconductor/RSL10/3.0.534/lib/ble_core/Release/libblelib.a(smpc_crypto.o)
                0x0011be84                smpc_g2_complete
 .text.smpc_f5_complete
                0x0011beb4       0x34 C:/Users/h274519/ON_Semiconductor/ONSemiconductor/RSL10/3.0.534/lib/ble_core/Release/libblelib.a(smpc_crypto.o)
                0x0011beb4                smpc_f5_complete
 .text.smpc_f6_complete
                0x0011bee8       0x30 C:/Users/h274519/ON_Semiconductor/ONSemiconductor/RSL10/3.0.534/lib/ble_core/Release/libblelib.a(smpc_crypto.o)
                0x0011bee8                smpc_f6_complete
 .text.smpc_aes_cmac_init
                0x0011bf18       0x4c C:/Users/h274519/ON_Semiconductor/ONSemiconductor/RSL10/3.0.534/lib/ble_core/Release/libblelib.a(smpc_crypto.o)
                0x0011bf18                smpc_aes_cmac_init
 .text.smpc_f4_Init
                0x0011bf64       0x78 C:/Users/h274519/ON_Semiconductor/ONSemiconductor/RSL10/3.0.534/lib/ble_core/Release/libblelib.a(smpc_crypto.o)
                0x0011bf64                smpc_f4_Init
 .text.smpc_g2_init
                0x0011bfdc       0x88 C:/Users/h274519/ON_Semiconductor/ONSemiconductor/RSL10/3.0.534/lib/ble_core/Release/libblelib.a(smpc_crypto.o)
                0x0011bfdc                smpc_g2_init
 .text.smpc_f5_init
                0x0011c064       0xe4 C:/Users/h274519/ON_Semiconductor/ONSemiconductor/RSL10/3.0.534/lib/ble_core/Release/libblelib.a(smpc_crypto.o)
                0x0011c064                smpc_f5_init
 .text.smpc_f6_init
                0x0011c148       0xc8 C:/Users/h274519/ON_Semiconductor/ONSemiconductor/RSL10/3.0.534/lib/ble_core/Release/libblelib.a(smpc_crypto.o)
                0x0011c148                smpc_f6_init
 .text.smpc_XOR_16_Byte_Array
                0x0011c210       0x20 C:/Users/h274519/ON_Semiconductor/ONSemiconductor/RSL10/3.0.534/lib/ble_core/Release/libblelib.a(smpc_crypto.o)
                0x0011c210                smpc_XOR_16_Byte_Array
 .text.smpc_aes_cmac_complete
                0x0011c230       0x4c C:/Users/h274519/ON_Semiconductor/ONSemiconductor/RSL10/3.0.534/lib/ble_core/Release/libblelib.a(smpc_crypto.o)
                0x0011c230                smpc_aes_cmac_complete
 .text.smpc_ShiftLeft1Bit16ByteNum
                0x0011c27c       0x28 C:/Users/h274519/ON_Semiconductor/ONSemiconductor/RSL10/3.0.534/lib/ble_core/Release/libblelib.a(smpc_crypto.o)
                0x0011c27c                smpc_ShiftLeft1Bit16ByteNum
 .text.smpc_aes_cmac_continue
                0x0011c2a4      0x140 C:/Users/h274519/ON_Semiconductor/ONSemiconductor/RSL10/3.0.534/lib/ble_core/Release/libblelib.a(smpc_crypto.o)
                0x0011c2a4                smpc_aes_cmac_continue
 .text.smpc_process_aes_cmac
                0x0011c3e4       0x44 C:/Users/h274519/ON_Semiconductor/ONSemiconductor/RSL10/3.0.534/lib/ble_core/Release/libblelib.a(smpc_crypto.o)
                0x0011c3e4                smpc_process_aes_cmac
 .text.smpc_construct_pair_fail_pdu
                0x0011c428        0x6 C:/Users/h274519/ON_Semiconductor/ONSemiconductor/RSL10/3.0.534/lib/ble_core/Release/libblelib.a(smpc_util.o)
 .text.smpc_construct_sec_req_pdu
                0x0011c42e        0x6 C:/Users/h274519/ON_Semiconductor/ONSemiconductor/RSL10/3.0.534/lib/ble_core/Release/libblelib.a(smpc_util.o)
 .text.smpc_construcpublic_key_t_pdu
                0x0011c434       0x1a C:/Users/h274519/ON_Semiconductor/ONSemiconductor/RSL10/3.0.534/lib/ble_core/Release/libblelib.a(smpc_util.o)
 .text.smpc_construct_keypress_notification_pdu
                0x0011c44e        0x6 C:/Users/h274519/ON_Semiconductor/ONSemiconductor/RSL10/3.0.534/lib/ble_core/Release/libblelib.a(smpc_util.o)
 .text.smpc_construct_dhkey_check_pdu
                0x0011c454       0x14 C:/Users/h274519/ON_Semiconductor/ONSemiconductor/RSL10/3.0.534/lib/ble_core/Release/libblelib.a(smpc_util.o)
 .text.smpc_construct_sign_info_pdu
                0x0011c468       0x14 C:/Users/h274519/ON_Semiconductor/ONSemiconductor/RSL10/3.0.534/lib/ble_core/Release/libblelib.a(smpc_util.o)
 .text.smpc_construct_id_info_pdu
                0x0011c47c       0x14 C:/Users/h274519/ON_Semiconductor/ONSemiconductor/RSL10/3.0.534/lib/ble_core/Release/libblelib.a(smpc_util.o)
 .text.smpc_construct_mst_id_pdu
                0x0011c490       0x10 C:/Users/h274519/ON_Semiconductor/ONSemiconductor/RSL10/3.0.534/lib/ble_core/Release/libblelib.a(smpc_util.o)
 .text.smpc_construct_enc_info_pdu
                0x0011c4a0       0x14 C:/Users/h274519/ON_Semiconductor/ONSemiconductor/RSL10/3.0.534/lib/ble_core/Release/libblelib.a(smpc_util.o)
 .text.smpc_construct_pair_rand_pdu
                0x0011c4b4       0x14 C:/Users/h274519/ON_Semiconductor/ONSemiconductor/RSL10/3.0.534/lib/ble_core/Release/libblelib.a(smpc_util.o)
 .text.smpc_construct_pair_cfm_pdu
                0x0011c4c8       0x14 C:/Users/h274519/ON_Semiconductor/ONSemiconductor/RSL10/3.0.534/lib/ble_core/Release/libblelib.a(smpc_util.o)
 .text.smpc_construct_pair_rsp_pdu
                0x0011c4dc        0xe C:/Users/h274519/ON_Semiconductor/ONSemiconductor/RSL10/3.0.534/lib/ble_core/Release/libblelib.a(smpc_util.o)
 .text.smpc_construct_pair_req_pdu
                0x0011c4ea        0xe C:/Users/h274519/ON_Semiconductor/ONSemiconductor/RSL10/3.0.534/lib/ble_core/Release/libblelib.a(smpc_util.o)
 .text.smpc_construct_id_addr_info_pdu
                0x0011c4f8       0x1e C:/Users/h274519/ON_Semiconductor/ONSemiconductor/RSL10/3.0.534/lib/ble_core/Release/libblelib.a(smpc_util.o)
 *fill*         0x0011c516        0x2 
 .text.smpc_recv_keypress_notification_pdu
                0x0011c518       0x48 C:/Users/h274519/ON_Semiconductor/ONSemiconductor/RSL10/3.0.534/lib/ble_core/Release/libblelib.a(smpc_util.o)
 .text.smpc_recv_dhkey_check_pdu
                0x0011c560       0x5c C:/Users/h274519/ON_Semiconductor/ONSemiconductor/RSL10/3.0.534/lib/ble_core/Release/libblelib.a(smpc_util.o)
 .text.smpc_recv_public_key_pdu
                0x0011c5bc       0xbc C:/Users/h274519/ON_Semiconductor/ONSemiconductor/RSL10/3.0.534/lib/ble_core/Release/libblelib.a(smpc_util.o)
 .text.smpc_recv_id_addr_info_pdu
                0x0011c678       0x60 C:/Users/h274519/ON_Semiconductor/ONSemiconductor/RSL10/3.0.534/lib/ble_core/Release/libblelib.a(smpc_util.o)
 .text.smpc_recv_id_info_pdu
                0x0011c6d8       0x3c C:/Users/h274519/ON_Semiconductor/ONSemiconductor/RSL10/3.0.534/lib/ble_core/Release/libblelib.a(smpc_util.o)
 .text.smpc_recv_enc_info_pdu
                0x0011c714       0x3c C:/Users/h274519/ON_Semiconductor/ONSemiconductor/RSL10/3.0.534/lib/ble_core/Release/libblelib.a(smpc_util.o)
 .text.smpc_recv_mst_id_pdu
                0x0011c750       0x6c C:/Users/h274519/ON_Semiconductor/ONSemiconductor/RSL10/3.0.534/lib/ble_core/Release/libblelib.a(smpc_util.o)
 .text.smpc_recv_pair_fail_pdu
                0x0011c7bc       0x40 C:/Users/h274519/ON_Semiconductor/ONSemiconductor/RSL10/3.0.534/lib/ble_core/Release/libblelib.a(smpc_util.o)
 .text.smpc_recv_pair_rand_pdu
                0x0011c7fc      0x1e8 C:/Users/h274519/ON_Semiconductor/ONSemiconductor/RSL10/3.0.534/lib/ble_core/Release/libblelib.a(smpc_util.o)
 .text.smpc_recv_pair_cfm_pdu
                0x0011c9e4      0x114 C:/Users/h274519/ON_Semiconductor/ONSemiconductor/RSL10/3.0.534/lib/ble_core/Release/libblelib.a(smpc_util.o)
 .text.smpc_recv_pair_rsp_pdu
                0x0011caf8      0x11c C:/Users/h274519/ON_Semiconductor/ONSemiconductor/RSL10/3.0.534/lib/ble_core/Release/libblelib.a(smpc_util.o)
 .text.smpc_recv_sec_req_pdu
                0x0011cc14       0x7c C:/Users/h274519/ON_Semiconductor/ONSemiconductor/RSL10/3.0.534/lib/ble_core/Release/libblelib.a(smpc_util.o)
 .text.smpc_recv_sign_info_pdu
                0x0011cc90       0x34 C:/Users/h274519/ON_Semiconductor/ONSemiconductor/RSL10/3.0.534/lib/ble_core/Release/libblelib.a(smpc_util.o)
 .text.smpc_recv_pair_req_pdu
                0x0011ccc4       0xac C:/Users/h274519/ON_Semiconductor/ONSemiconductor/RSL10/3.0.534/lib/ble_core/Release/libblelib.a(smpc_util.o)
 .text.smpc_check_param
                0x0011cd70       0x6c C:/Users/h274519/ON_Semiconductor/ONSemiconductor/RSL10/3.0.534/lib/ble_core/Release/libblelib.a(smpc_util.o)
                0x0011cd70                smpc_check_param
 .text.hci_le_rd_adv_chnl_tx_pw_cmd_cmp_evt_handler
                0x0011cddc       0x46 C:/Users/h274519/ON_Semiconductor/ONSemiconductor/RSL10/3.0.534/lib/ble_core/Release/libblelib.a(gapm_hci.o)
 .text.hci_test_end_cmd_cmp_evt_handler
                0x0011ce22       0x3a C:/Users/h274519/ON_Semiconductor/ONSemiconductor/RSL10/3.0.534/lib/ble_core/Release/libblelib.a(gapm_hci.o)
 .text.hci_le_enh_con_cmp_evt_handler
                0x0011ce5c       0x1c C:/Users/h274519/ON_Semiconductor/ONSemiconductor/RSL10/3.0.534/lib/ble_core/Release/libblelib.a(gapm_hci.o)
 .text.hci_basic_cmd_cmp_evt_connect_handler
                0x0011ce78       0x4c C:/Users/h274519/ON_Semiconductor/ONSemiconductor/RSL10/3.0.534/lib/ble_core/Release/libblelib.a(gapm_hci.o)
 .text.hci_basic_cmd_cmp_evt_scan_handler
                0x0011cec4       0x5c C:/Users/h274519/ON_Semiconductor/ONSemiconductor/RSL10/3.0.534/lib/ble_core/Release/libblelib.a(gapm_hci.o)
 .text.hci_basic_cmd_cmp_evt_rl_handler
                0x0011cf20       0xb8 C:/Users/h274519/ON_Semiconductor/ONSemiconductor/RSL10/3.0.534/lib/ble_core/Release/libblelib.a(gapm_hci.o)
 .text.hci_basic_cmd_cmp_evt_adv_handler
                0x0011cfd8       0xcc C:/Users/h274519/ON_Semiconductor/ONSemiconductor/RSL10/3.0.534/lib/ble_core/Release/libblelib.a(gapm_hci.o)
 .text.hci_basic_cmd_cmp_evt_cfg_handler
                0x0011d0a4       0xa4 C:/Users/h274519/ON_Semiconductor/ONSemiconductor/RSL10/3.0.534/lib/ble_core/Release/libblelib.a(gapm_hci.o)
 .text.hci_no_operation_cmd_cmp_evt_handler
                0x0011d148       0x12 C:/Users/h274519/ON_Semiconductor/ONSemiconductor/RSL10/3.0.534/lib/ble_core/Release/libblelib.a(gapm_hci.o)
 .text.hci_rd_buff_size_cmd_cmp_evt_handler
                0x0011d15a       0x22 C:/Users/h274519/ON_Semiconductor/ONSemiconductor/RSL10/3.0.534/lib/ble_core/Release/libblelib.a(gapm_hci.o)
 .text.hci_le_rd_buff_size_cmd_cmp_evt_handler
                0x0011d17c       0x22 C:/Users/h274519/ON_Semiconductor/ONSemiconductor/RSL10/3.0.534/lib/ble_core/Release/libblelib.a(gapm_hci.o)
 .text.hci_le_gen_dhkey_stat_evt_handler
                0x0011d19e       0x26 C:/Users/h274519/ON_Semiconductor/ONSemiconductor/RSL10/3.0.534/lib/ble_core/Release/libblelib.a(gapm_hci.o)
                0x0011d19e                hci_le_gen_dhkey_stat_evt_handler
 .text.hci_le_generate_dhkey_cmp_evt_handler
                0x0011d1c4       0x5a C:/Users/h274519/ON_Semiconductor/ONSemiconductor/RSL10/3.0.534/lib/ble_core/Release/libblelib.a(gapm_hci.o)
 .text.hci_le_rd_ral_addr_cmd_cmp_evt_handler
                0x0011d21e       0x68 C:/Users/h274519/ON_Semiconductor/ONSemiconductor/RSL10/3.0.534/lib/ble_core/Release/libblelib.a(gapm_hci.o)
 .text.hci_le_rd_ral_size_cmd_cmp_evt_handler
                0x0011d286       0x50 C:/Users/h274519/ON_Semiconductor/ONSemiconductor/RSL10/3.0.534/lib/ble_core/Release/libblelib.a(gapm_hci.o)
 .text.hci_le_rd_max_data_len_cmd_cmp_evt_handler
                0x0011d2d6       0x44 C:/Users/h274519/ON_Semiconductor/ONSemiconductor/RSL10/3.0.534/lib/ble_core/Release/libblelib.a(gapm_hci.o)
 .text.hci_le_rd_suggted_dft_data_len_cmd_cmp_evt_handler
                0x0011d31a       0x3c C:/Users/h274519/ON_Semiconductor/ONSemiconductor/RSL10/3.0.534/lib/ble_core/Release/libblelib.a(gapm_hci.o)
 .text.hci_rd_local_ver_info_cmd_cmp_evt_handler
                0x0011d356       0x6a C:/Users/h274519/ON_Semiconductor/ONSemiconductor/RSL10/3.0.534/lib/ble_core/Release/libblelib.a(gapm_hci.o)
 .text.hci_le_rd_local_p256_public_key_cmp_evt_handler
                0x0011d3c0       0xa8 C:/Users/h274519/ON_Semiconductor/ONSemiconductor/RSL10/3.0.534/lib/ble_core/Release/libblelib.a(gapm_hci.o)
 .text.hci_le_con_cmp_evt_handler
                0x0011d468       0x66 C:/Users/h274519/ON_Semiconductor/ONSemiconductor/RSL10/3.0.534/lib/ble_core/Release/libblelib.a(gapm_hci.o)
 *fill*         0x0011d4ce        0x2 
 .text.hci_le_dir_adv_report_evt_handler
                0x0011d4d0       0x90 C:/Users/h274519/ON_Semiconductor/ONSemiconductor/RSL10/3.0.534/lib/ble_core/Release/libblelib.a(gapm_hci.o)
 .text.hci_le_adv_report_evt_handler
                0x0011d560       0xdc C:/Users/h274519/ON_Semiconductor/ONSemiconductor/RSL10/3.0.534/lib/ble_core/Release/libblelib.a(gapm_hci.o)
 .text.hci_basic_cmd_cmp_evt_addr_set_handler
                0x0011d63c       0x80 C:/Users/h274519/ON_Semiconductor/ONSemiconductor/RSL10/3.0.534/lib/ble_core/Release/libblelib.a(gapm_hci.o)
 .text.hci_basic_cmd_cmp_evt_wl_handler
                0x0011d6bc       0x78 C:/Users/h274519/ON_Semiconductor/ONSemiconductor/RSL10/3.0.534/lib/ble_core/Release/libblelib.a(gapm_hci.o)
 .text.hci_le_rand_cmd_cmp_evt_handler
                0x0011d734       0xc8 C:/Users/h274519/ON_Semiconductor/ONSemiconductor/RSL10/3.0.534/lib/ble_core/Release/libblelib.a(gapm_hci.o)
 .text.hci_le_enc_cmd_cmp_evt_handler
                0x0011d7fc      0x138 C:/Users/h274519/ON_Semiconductor/ONSemiconductor/RSL10/3.0.534/lib/ble_core/Release/libblelib.a(gapm_hci.o)
 .text.hci_rd_bd_addr_cmd_cmp_evt_handler
                0x0011d934       0x4c C:/Users/h274519/ON_Semiconductor/ONSemiconductor/RSL10/3.0.534/lib/ble_core/Release/libblelib.a(gapm_hci.o)
 .text.hci_le_rd_wlst_size_cmd_cmp_evt_handler
                0x0011d980       0x50 C:/Users/h274519/ON_Semiconductor/ONSemiconductor/RSL10/3.0.534/lib/ble_core/Release/libblelib.a(gapm_hci.o)
 .text.gapm_hci_handler
                0x0011d9d0       0x64 C:/Users/h274519/ON_Semiconductor/ONSemiconductor/RSL10/3.0.534/lib/ble_core/Release/libblelib.a(gapm_hci.o)
                0x0011d9d0                gapm_hci_handler
 .text.hci_enc_key_refr_evt_handler
                0x0011da34       0x22 C:/Users/h274519/ON_Semiconductor/ONSemiconductor/RSL10/3.0.534/lib/ble_core/Release/libblelib.a(gapc_hci.o)
 .text.hci_enc_chg_evt_handler
                0x0011da56       0x22 C:/Users/h274519/ON_Semiconductor/ONSemiconductor/RSL10/3.0.534/lib/ble_core/Release/libblelib.a(gapc_hci.o)
 .text.hci_rd_rem_ver_info_cmp_evt_handler
                0x0011da78       0x8c C:/Users/h274519/ON_Semiconductor/ONSemiconductor/RSL10/3.0.534/lib/ble_core/Release/libblelib.a(gapc_hci.o)
 .text.hci_le_phy_update_cmp_evt_handler
                0x0011db04       0x58 C:/Users/h274519/ON_Semiconductor/ONSemiconductor/RSL10/3.0.534/lib/ble_core/Release/libblelib.a(gapc_hci.o)
 .text.hci_le_start_enc_stat_evt_handler
                0x0011db5c       0x24 C:/Users/h274519/ON_Semiconductor/ONSemiconductor/RSL10/3.0.534/lib/ble_core/Release/libblelib.a(gapc_hci.o)
 .text.hci_vs_set_pref_slave_latency_cmd_cmp_evt_handler
                0x0011db80       0x28 C:/Users/h274519/ON_Semiconductor/ONSemiconductor/RSL10/3.0.534/lib/ble_core/Release/libblelib.a(gapc_hci.o)
 .text.hci_le_set_data_len_cmd_cmp_evt_handler
                0x0011dba8        0x4 C:/Users/h274519/ON_Semiconductor/ONSemiconductor/RSL10/3.0.534/lib/ble_core/Release/libblelib.a(gapc_hci.o)
 .text.hci_le_rd_phy_cmd_cmp_evt_handler
                0x0011dbac       0x4c C:/Users/h274519/ON_Semiconductor/ONSemiconductor/RSL10/3.0.534/lib/ble_core/Release/libblelib.a(gapc_hci.o)
 .text.hci_wr_auth_payl_to_cmd_cmp_evt_handler
                0x0011dbf8       0x28 C:/Users/h274519/ON_Semiconductor/ONSemiconductor/RSL10/3.0.534/lib/ble_core/Release/libblelib.a(gapc_hci.o)
 .text.hci_rd_auth_payl_to_cmd_cmp_evt_handler
                0x0011dc20       0x48 C:/Users/h274519/ON_Semiconductor/ONSemiconductor/RSL10/3.0.534/lib/ble_core/Release/libblelib.a(gapc_hci.o)
 .text.hci_rd_rssi_cmd_cmp_evt_handler
                0x0011dc68       0x5e C:/Users/h274519/ON_Semiconductor/ONSemiconductor/RSL10/3.0.534/lib/ble_core/Release/libblelib.a(gapc_hci.o)
 *fill*         0x0011dcc6        0x2 
 .text.hci_disc_cmp_evt_handler
                0x0011dcc8       0x58 C:/Users/h274519/ON_Semiconductor/ONSemiconductor/RSL10/3.0.534/lib/ble_core/Release/libblelib.a(gapc_hci.o)
 .text.hci_le_rd_rem_used_feats_cmp_evt_handler
                0x0011dd20       0xb4 C:/Users/h274519/ON_Semiconductor/ONSemiconductor/RSL10/3.0.534/lib/ble_core/Release/libblelib.a(gapc_hci.o)
 .text.hci_rd_chnl_map_cmd_cmp_evt_handler
                0x0011ddd4       0x66 C:/Users/h274519/ON_Semiconductor/ONSemiconductor/RSL10/3.0.534/lib/ble_core/Release/libblelib.a(gapc_hci.o)
 *fill*         0x0011de3a        0x2 
 .text.hci_le_ltk_request_evt_handler
                0x0011de3c       0x7c C:/Users/h274519/ON_Semiconductor/ONSemiconductor/RSL10/3.0.534/lib/ble_core/Release/libblelib.a(gapc_hci.o)
 .text.hci_le_con_update_cmp_evt_handler
                0x0011deb8       0x90 C:/Users/h274519/ON_Semiconductor/ONSemiconductor/RSL10/3.0.534/lib/ble_core/Release/libblelib.a(gapc_hci.o)
 .text.hci_cmd_stat_event_handler
                0x0011df48       0xf4 C:/Users/h274519/ON_Semiconductor/ONSemiconductor/RSL10/3.0.534/lib/ble_core/Release/libblelib.a(gapc_hci.o)
 .text.hci_auth_payl_to_exp_evt_handler
                0x0011e03c       0x1e C:/Users/h274519/ON_Semiconductor/ONSemiconductor/RSL10/3.0.534/lib/ble_core/Release/libblelib.a(gapc_hci.o)
 .text.hci_le_data_len_chg_evt_handler
                0x0011e05a       0x36 C:/Users/h274519/ON_Semiconductor/ONSemiconductor/RSL10/3.0.534/lib/ble_core/Release/libblelib.a(gapc_hci.o)
 .text.hci_le_rem_con_param_req_evt_handler
                0x0011e090       0x54 C:/Users/h274519/ON_Semiconductor/ONSemiconductor/RSL10/3.0.534/lib/ble_core/Release/libblelib.a(gapc_hci.o)
 .text.gapc_hci_handler
                0x0011e0e4       0x68 C:/Users/h274519/ON_Semiconductor/ONSemiconductor/RSL10/3.0.534/lib/ble_core/Release/libblelib.a(gapc_hci.o)
                0x0011e0e4                gapc_hci_handler
 .text.l2c_code_reject_handler
                0x0011e14c       0x44 C:/Users/h274519/ON_Semiconductor/ONSemiconductor/RSL10/3.0.534/lib/ble_core/Release/libblelib.a(gapc_sig.o)
 .text.l2c_code_conn_param_upd_resp_handler
                0x0011e190       0x44 C:/Users/h274519/ON_Semiconductor/ONSemiconductor/RSL10/3.0.534/lib/ble_core/Release/libblelib.a(gapc_sig.o)
 .text.gapc_sig_send_param_resp
                0x0011e1d4       0x26 C:/Users/h274519/ON_Semiconductor/ONSemiconductor/RSL10/3.0.534/lib/ble_core/Release/libblelib.a(gapc_sig.o)
                0x0011e1d4                gapc_sig_send_param_resp
 *fill*         0x0011e1fa        0x2 
 .text.l2c_code_conn_param_upd_req_handler
                0x0011e1fc       0x68 C:/Users/h274519/ON_Semiconductor/ONSemiconductor/RSL10/3.0.534/lib/ble_core/Release/libblelib.a(gapc_sig.o)
 .text.gapc_sig_pdu_recv_handler
                0x0011e264       0x2c C:/Users/h274519/ON_Semiconductor/ONSemiconductor/RSL10/3.0.534/lib/ble_core/Release/libblelib.a(gapc_sig.o)
                0x0011e264                gapc_sig_pdu_recv_handler
 .text.ke_init  0x0011e290       0x40 C:/Users/h274519/ON_Semiconductor/ONSemiconductor/RSL10/3.0.534/lib/ble_core/Release/libkelib.a(ke.o)
                0x0011e290                ke_init
 .text.ke_flush
                0x0011e2d0       0x48 C:/Users/h274519/ON_Semiconductor/ONSemiconductor/RSL10/3.0.534/lib/ble_core/Release/libkelib.a(ke.o)
                0x0011e2d0                ke_flush
 .text.ke_event_init
                0x0011e318       0x10 C:/Users/h274519/ON_Semiconductor/ONSemiconductor/RSL10/3.0.534/lib/ble_core/Release/libkelib.a(ke_event.o)
                0x0011e318                ke_event_init
 .text.ke_event_callback_set
                0x0011e328       0x18 C:/Users/h274519/ON_Semiconductor/ONSemiconductor/RSL10/3.0.534/lib/ble_core/Release/libkelib.a(ke_event.o)
                0x0011e328                ke_event_callback_set
 .text.ke_event_set
                0x0011e340       0x1c C:/Users/h274519/ON_Semiconductor/ONSemiconductor/RSL10/3.0.534/lib/ble_core/Release/libkelib.a(ke_event.o)
                0x0011e340                ke_event_set
 .text.ke_event_clear
                0x0011e35c       0x20 C:/Users/h274519/ON_Semiconductor/ONSemiconductor/RSL10/3.0.534/lib/ble_core/Release/libkelib.a(ke_event.o)
                0x0011e35c                ke_event_clear
 .text.ke_event_flush
                0x0011e37c        0xc C:/Users/h274519/ON_Semiconductor/ONSemiconductor/RSL10/3.0.534/lib/ble_core/Release/libkelib.a(ke_event.o)
                0x0011e37c                ke_event_flush
 .text.ke_event_schedule
                0x0011e388       0x28 C:/Users/h274519/ON_Semiconductor/ONSemiconductor/RSL10/3.0.534/lib/ble_core/Release/libkelib.a(ke_event.o)
                0x0011e388                ke_event_schedule
 .text.ke_mem_init
                0x0011e3b0       0x38 C:/Users/h274519/ON_Semiconductor/ONSemiconductor/RSL10/3.0.534/lib/ble_core/Release/libkelib.a(ke_mem.o)
                0x0011e3b0                ke_mem_init
 .text.ke_check_malloc
                0x0011e3e8       0x64 C:/Users/h274519/ON_Semiconductor/ONSemiconductor/RSL10/3.0.534/lib/ble_core/Release/libkelib.a(ke_mem.o)
                0x0011e3e8                ke_check_malloc
 .text.ke_malloc
                0x0011e44c       0x9c C:/Users/h274519/ON_Semiconductor/ONSemiconductor/RSL10/3.0.534/lib/ble_core/Release/libkelib.a(ke_mem.o)
                0x0011e44c                ke_malloc
 .text.ke_free  0x0011e4e8       0xc0 C:/Users/h274519/ON_Semiconductor/ONSemiconductor/RSL10/3.0.534/lib/ble_core/Release/libkelib.a(ke_mem.o)
                0x0011e4e8                ke_free
 .text.ke_is_free
                0x0011e5a8       0x10 C:/Users/h274519/ON_Semiconductor/ONSemiconductor/RSL10/3.0.534/lib/ble_core/Release/libkelib.a(ke_mem.o)
                0x0011e5a8                ke_is_free
 .text.ke_msg_alloc
                0x0011e5b8       0x34 C:/Users/h274519/ON_Semiconductor/ONSemiconductor/RSL10/3.0.534/lib/ble_core/Release/libkelib.a(ke_msg.o)
                0x0011e5b8                ke_msg_alloc
 .text.ke_msg_send
                0x0011e5ec       0x20 C:/Users/h274519/ON_Semiconductor/ONSemiconductor/RSL10/3.0.534/lib/ble_core/Release/libkelib.a(ke_msg.o)
                0x0011e5ec                ke_msg_send
 .text.ke_msg_send_basic
                0x0011e60c       0x10 C:/Users/h274519/ON_Semiconductor/ONSemiconductor/RSL10/3.0.534/lib/ble_core/Release/libkelib.a(ke_msg.o)
                0x0011e60c                ke_msg_send_basic
 .text.ke_msg_forward
                0x0011e61c        0xc C:/Users/h274519/ON_Semiconductor/ONSemiconductor/RSL10/3.0.534/lib/ble_core/Release/libkelib.a(ke_msg.o)
                0x0011e61c                ke_msg_forward
 .text.ke_msg_free
                0x0011e628        0x4 C:/Users/h274519/ON_Semiconductor/ONSemiconductor/RSL10/3.0.534/lib/ble_core/Release/libkelib.a(ke_msg.o)
                0x0011e628                ke_msg_free
 .text.ke_msg_src_id_get
                0x0011e62c        0x6 C:/Users/h274519/ON_Semiconductor/ONSemiconductor/RSL10/3.0.534/lib/ble_core/Release/libkelib.a(ke_msg.o)
                0x0011e62c                ke_msg_src_id_get
 .text.ke_msg_in_queue
                0x0011e632        0xc C:/Users/h274519/ON_Semiconductor/ONSemiconductor/RSL10/3.0.534/lib/ble_core/Release/libkelib.a(ke_msg.o)
                0x0011e632                ke_msg_in_queue
 .text.cmp_dest_id
                0x0011e63e        0xa C:/Users/h274519/ON_Semiconductor/ONSemiconductor/RSL10/3.0.534/lib/ble_core/Release/libkelib.a(ke_task.o)
 .text.ke_handler_search
                0x0011e648       0x2e C:/Users/h274519/ON_Semiconductor/ONSemiconductor/RSL10/3.0.534/lib/ble_core/Release/libkelib.a(ke_task.o)
 *fill*         0x0011e676        0x2 
 .text.ke_task_schedule
                0x0011e678       0xa4 C:/Users/h274519/ON_Semiconductor/ONSemiconductor/RSL10/3.0.534/lib/ble_core/Release/libkelib.a(ke_task.o)
 .text.ke_task_init
                0x0011e71c       0x20 C:/Users/h274519/ON_Semiconductor/ONSemiconductor/RSL10/3.0.534/lib/ble_core/Release/libkelib.a(ke_task.o)
                0x0011e71c                ke_task_init
 .text.ke_task_create
                0x0011e73c       0x24 C:/Users/h274519/ON_Semiconductor/ONSemiconductor/RSL10/3.0.534/lib/ble_core/Release/libkelib.a(ke_task.o)
                0x0011e73c                ke_task_create
 .text.ke_state_set
                0x0011e760       0x60 C:/Users/h274519/ON_Semiconductor/ONSemiconductor/RSL10/3.0.534/lib/ble_core/Release/libkelib.a(ke_task.o)
                0x0011e760                ke_state_set
 .text.ke_state_get
                0x0011e7c0       0x28 C:/Users/h274519/ON_Semiconductor/ONSemiconductor/RSL10/3.0.534/lib/ble_core/Release/libkelib.a(ke_task.o)
                0x0011e7c0                ke_state_get
 .text.ke_msg_discard
                0x0011e7e8        0x4 C:/Users/h274519/ON_Semiconductor/ONSemiconductor/RSL10/3.0.534/lib/ble_core/Release/libkelib.a(ke_task.o)
                0x0011e7e8                ke_msg_discard
 .text.ke_task_msg_flush
                0x0011e7ec       0x40 C:/Users/h274519/ON_Semiconductor/ONSemiconductor/RSL10/3.0.534/lib/ble_core/Release/libkelib.a(ke_task.o)
                0x0011e7ec                ke_task_msg_flush
 .text.cmp_abs_time
                0x0011e82c       0x16 C:/Users/h274519/ON_Semiconductor/ONSemiconductor/RSL10/3.0.534/lib/ble_core/Release/libkelib.a(ke_timer.o)
 .text.cmp_timer_id
                0x0011e842       0x18 C:/Users/h274519/ON_Semiconductor/ONSemiconductor/RSL10/3.0.534/lib/ble_core/Release/libkelib.a(ke_timer.o)
 *fill*         0x0011e85a        0x2 
 .text.ke_timer_hw_set
                0x0011e85c       0x34 C:/Users/h274519/ON_Semiconductor/ONSemiconductor/RSL10/3.0.534/lib/ble_core/Release/libkelib.a(ke_timer.o)
 .text.ke_timer_schedule
                0x0011e890       0x80 C:/Users/h274519/ON_Semiconductor/ONSemiconductor/RSL10/3.0.534/lib/ble_core/Release/libkelib.a(ke_timer.o)
 .text.ke_timer_init
                0x0011e910        0xc C:/Users/h274519/ON_Semiconductor/ONSemiconductor/RSL10/3.0.534/lib/ble_core/Release/libkelib.a(ke_timer.o)
                0x0011e910                ke_timer_init
 .text.ke_timer_set
                0x0011e91c       0xb4 C:/Users/h274519/ON_Semiconductor/ONSemiconductor/RSL10/3.0.534/lib/ble_core/Release/libkelib.a(ke_timer.o)
                0x0011e91c                ke_timer_set
 .text.ke_timer_clear
                0x0011e9d0       0x6c C:/Users/h274519/ON_Semiconductor/ONSemiconductor/RSL10/3.0.534/lib/ble_core/Release/libkelib.a(ke_timer.o)
                0x0011e9d0                ke_timer_clear
 .text.ke_timer_active
                0x0011ea3c       0x24 C:/Users/h274519/ON_Semiconductor/ONSemiconductor/RSL10/3.0.534/lib/ble_core/Release/libkelib.a(ke_timer.o)
                0x0011ea3c                ke_timer_active
 .text.platform_reset
                0x0011ea60       0x30 C:/Users/h274519/ON_Semiconductor/ONSemiconductor/RSL10/3.0.534/lib/ble_core/Release/libkelib.a(rst_grosstime.o)
                0x0011ea60                platform_reset
 .text.ea_time_get_halfslot_rounded
                0x0011ea90       0x18 C:/Users/h274519/ON_Semiconductor/ONSemiconductor/RSL10/3.0.534/lib/ble_core/Release/libkelib.a(rst_grosstime.o)
                0x0011ea90                ea_time_get_halfslot_rounded
 .text.lld_evt_timer_isr
                0x0011eaa8        0x6 C:/Users/h274519/ON_Semiconductor/ONSemiconductor/RSL10/3.0.534/lib/ble_core/Release/libkelib.a(rst_grosstime.o)
                0x0011eaa8                lld_evt_timer_isr
 *fill*         0x0011eaae        0x2 
 .text.grosstimer_isr
                0x0011eab0       0x20 C:/Users/h274519/ON_Semiconductor/ONSemiconductor/RSL10/3.0.534/lib/ble_core/Release/libkelib.a(rst_grosstime.o)
                0x0011eab0                grosstimer_isr
                0x0011eab0                BLE_GROSSTGTIM_IRQHandler
 .text.Kernel_Init
                0x0011ead0       0x5c C:/Users/h274519/ON_Semiconductor/ONSemiconductor/RSL10/3.0.534/lib/ble_core/Release/libkelib.a(rwip2.o)
                0x0011ead0                Kernel_Init
 .text.Kernel_Schedule
                0x0011eb2c       0x14 C:/Users/h274519/ON_Semiconductor/ONSemiconductor/RSL10/3.0.534/lib/ble_core/Release/libkelib.a(rwip2.o)
                0x0011eb2c                Kernel_Schedule
 .text.co_list_init
                0x0011eb40        0x8 C:/Users/h274519/ON_Semiconductor/ONSemiconductor/RSL10/3.0.534/lib/ble_core/Release/libkelib.a(co_list.o)
                0x0011eb40                co_list_init
 .text.co_list_push_back
                0x0011eb48       0x14 C:/Users/h274519/ON_Semiconductor/ONSemiconductor/RSL10/3.0.534/lib/ble_core/Release/libkelib.a(co_list.o)
                0x0011eb48                co_list_push_back
 .text.co_list_push_front
                0x0011eb5c        0xc C:/Users/h274519/ON_Semiconductor/ONSemiconductor/RSL10/3.0.534/lib/ble_core/Release/libkelib.a(co_list.o)
                0x0011eb5c                co_list_push_front
 .text.co_list_pop_front
                0x0011eb68       0x10 C:/Users/h274519/ON_Semiconductor/ONSemiconductor/RSL10/3.0.534/lib/ble_core/Release/libkelib.a(co_list.o)
                0x0011eb68                co_list_pop_front
 .text.co_list_extract
                0x0011eb78       0x34 C:/Users/h274519/ON_Semiconductor/ONSemiconductor/RSL10/3.0.534/lib/ble_core/Release/libkelib.a(co_list.o)
                0x0011eb78                co_list_extract
 .text.co_list_extract_after
                0x0011ebac       0x18 C:/Users/h274519/ON_Semiconductor/ONSemiconductor/RSL10/3.0.534/lib/ble_core/Release/libkelib.a(co_list.o)
                0x0011ebac                co_list_extract_after
 .text.co_list_find
                0x0011ebc4       0x12 C:/Users/h274519/ON_Semiconductor/ONSemiconductor/RSL10/3.0.534/lib/ble_core/Release/libkelib.a(co_list.o)
                0x0011ebc4                co_list_find
 .text.co_list_merge
                0x0011ebd6       0x1a C:/Users/h274519/ON_Semiconductor/ONSemiconductor/RSL10/3.0.534/lib/ble_core/Release/libkelib.a(co_list.o)
                0x0011ebd6                co_list_merge
 .text.co_list_insert_before
                0x0011ebf0       0x28 C:/Users/h274519/ON_Semiconductor/ONSemiconductor/RSL10/3.0.534/lib/ble_core/Release/libkelib.a(co_list.o)
                0x0011ebf0                co_list_insert_before
 .text.co_list_insert_after
                0x0011ec18       0x22 C:/Users/h274519/ON_Semiconductor/ONSemiconductor/RSL10/3.0.534/lib/ble_core/Release/libkelib.a(co_list.o)
                0x0011ec18                co_list_insert_after
 .text.co_list_size
                0x0011ec3a       0x10 C:/Users/h274519/ON_Semiconductor/ONSemiconductor/RSL10/3.0.534/lib/ble_core/Release/libkelib.a(co_list.o)
                0x0011ec3a                co_list_size
 .text.co_bdaddr_compare
                0x0011ec4a       0x20 C:/Users/h274519/ON_Semiconductor/ONSemiconductor/RSL10/3.0.534/lib/ble_core/Release/libkelib.a(co_utils.o)
                0x0011ec4a                co_bdaddr_compare
 .text.ke_queue_extract
                0x0011ec6a       0x3a C:/Users/h274519/ON_Semiconductor/ONSemiconductor/RSL10/3.0.534/lib/ble_core/Release/libkelib.a(ke_queue.o)
                0x0011ec6a                ke_queue_extract
 .text.ke_queue_insert
                0x0011eca4       0x30 C:/Users/h274519/ON_Semiconductor/ONSemiconductor/RSL10/3.0.534/lib/ble_core/Release/libkelib.a(ke_queue.o)
                0x0011eca4                ke_queue_insert
 .text.bass_create
                0x0011ecd4        0xa C:/Users/h274519/ON_Semiconductor/ONSemiconductor/RSL10/3.0.534/lib/ble_profiles/Release/libbass.a(bass.o)
 .text.bass_cleanup
                0x0011ecde        0xa C:/Users/h274519/ON_Semiconductor/ONSemiconductor/RSL10/3.0.534/lib/ble_profiles/Release/libbass.a(bass.o)
 .text.bass_destroy
                0x0011ece8       0x1c C:/Users/h274519/ON_Semiconductor/ONSemiconductor/RSL10/3.0.534/lib/ble_profiles/Release/libbass.a(bass.o)
 .text.bass_init
                0x0011ed04      0x160 C:/Users/h274519/ON_Semiconductor/ONSemiconductor/RSL10/3.0.534/lib/ble_profiles/Release/libbass.a(bass.o)
 .text.bass_prf_itf_get
                0x0011ee64        0x8 C:/Users/h274519/ON_Semiconductor/ONSemiconductor/RSL10/3.0.534/lib/ble_profiles/Release/libbass.a(bass.o)
                0x0011ee64                bass_prf_itf_get
 .text.bass_get_att_handle
                0x0011ee6c       0x74 C:/Users/h274519/ON_Semiconductor/ONSemiconductor/RSL10/3.0.534/lib/ble_profiles/Release/libbass.a(bass.o)
                0x0011ee6c                bass_get_att_handle
 .text.bass_notify_batt_lvl
                0x0011eee0       0x44 C:/Users/h274519/ON_Semiconductor/ONSemiconductor/RSL10/3.0.534/lib/ble_profiles/Release/libbass.a(bass.o)
 .text.bass_get_att_idx
                0x0011ef24       0x6a C:/Users/h274519/ON_Semiconductor/ONSemiconductor/RSL10/3.0.534/lib/ble_profiles/Release/libbass.a(bass.o)
                0x0011ef24                bass_get_att_idx
 .text.bass_exe_operation
                0x0011ef8e       0xc4 C:/Users/h274519/ON_Semiconductor/ONSemiconductor/RSL10/3.0.534/lib/ble_profiles/Release/libbass.a(bass.o)
                0x0011ef8e                bass_exe_operation
 .text.gattc_cmp_evt_handler
                0x0011f052       0x10 C:/Users/h274519/ON_Semiconductor/ONSemiconductor/RSL10/3.0.534/lib/ble_profiles/Release/libbass.a(bass_task.o)
 .text.gattc_read_req_ind_handler
                0x0011f062       0xb6 C:/Users/h274519/ON_Semiconductor/ONSemiconductor/RSL10/3.0.534/lib/ble_profiles/Release/libbass.a(bass_task.o)
 .text.gattc_att_info_req_ind_handler
                0x0011f118       0x50 C:/Users/h274519/ON_Semiconductor/ONSemiconductor/RSL10/3.0.534/lib/ble_profiles/Release/libbass.a(bass_task.o)
 .text.gattc_write_req_ind_handler
                0x0011f168       0xb0 C:/Users/h274519/ON_Semiconductor/ONSemiconductor/RSL10/3.0.534/lib/ble_profiles/Release/libbass.a(bass_task.o)
 .text.bass_batt_level_upd_req_handler
                0x0011f218       0x6c C:/Users/h274519/ON_Semiconductor/ONSemiconductor/RSL10/3.0.534/lib/ble_profiles/Release/libbass.a(bass_task.o)
 .text.bass_enable_req_handler
                0x0011f284       0x7c C:/Users/h274519/ON_Semiconductor/ONSemiconductor/RSL10/3.0.534/lib/ble_profiles/Release/libbass.a(bass_task.o)
 .text.Device_Param_Read
                0x0011f300      0x228 C:/Users/h274519/ON_Semiconductor/ONSemiconductor/RSL10/3.0.534/lib/Release/libsyslib.a(rsl10_protocol.o)
                0x0011f300                Device_Param_Read
 .text.BLE_DeviceParam_Set_ClockAccuracy
                0x0011f528       0x18 C:/Users/h274519/ON_Semiconductor/ONSemiconductor/RSL10/3.0.534/lib/Release/libsyslib.a(rsl10_protocol.o)
                0x0011f528                BLE_DeviceParam_Set_ClockAccuracy
 .text.BLE_DeviceParam_Set_MaxRxOctet
                0x0011f540       0x30 C:/Users/h274519/ON_Semiconductor/ONSemiconductor/RSL10/3.0.534/lib/Release/libsyslib.a(rsl10_protocol.o)
                0x0011f540                BLE_DeviceParam_Set_MaxRxOctet
 .text.BLE_DeviceParam_Set_AdvDelay
                0x0011f570       0x18 C:/Users/h274519/ON_Semiconductor/ONSemiconductor/RSL10/3.0.534/lib/Release/libsyslib.a(rsl10_protocol.o)
                0x0011f570                BLE_DeviceParam_Set_AdvDelay
 .text.BLE_DeviceParam_Set_SlaveLatencyDelay
                0x0011f588       0x10 C:/Users/h274519/ON_Semiconductor/ONSemiconductor/RSL10/3.0.534/lib/Release/libsyslib.a(rsl10_protocol.o)
                0x0011f588                BLE_DeviceParam_Set_SlaveLatencyDelay
 .text.Sys_DMA_ChannelConfig
                0x0011f598       0x30 C:/Users/h274519/ON_Semiconductor/ONSemiconductor/RSL10/3.0.534/lib/Release/libsyslib.a(rsl10_sys_dma.o)
                0x0011f598                Sys_DMA_ChannelConfig
 .text.Sys_GetTrim
                0x0011f5c8        0xe C:/Users/h274519/ON_Semiconductor/ONSemiconductor/RSL10/3.0.534/lib/Release/libsyslib.a(rsl10_sys_rffe.o)
 *fill*         0x0011f5d6        0x2 
 .text.Sys_RFFE_Interpolate
                0x0011f5d8       0xd0 C:/Users/h274519/ON_Semiconductor/ONSemiconductor/RSL10/3.0.534/lib/Release/libsyslib.a(rsl10_sys_rffe.o)
                0x0011f5d8                Sys_RFFE_Interpolate
 .text.Sys_RFFE_SetTXPower
                0x0011f6a8      0x278 C:/Users/h274519/ON_Semiconductor/ONSemiconductor/RSL10/3.0.534/lib/Release/libsyslib.a(rsl10_sys_rffe.o)
                0x0011f6a8                Sys_RFFE_SetTXPower
 .text.Sys_UART_Enable
                0x0011f920       0x54 C:/Users/h274519/ON_Semiconductor/ONSemiconductor/RSL10/3.0.534/lib/Release/libsyslib.a(rsl10_sys_uart.o)
                0x0011f920                Sys_UART_Enable
 .text.Sys_GetTrim
                0x0011f974        0xe C:/Users/h274519/ON_Semiconductor/ONSemiconductor/RSL10/3.0.534/lib/Release/libsyslib.a(rsl10_sys_power.o)
 *fill*         0x0011f982        0x2 
 .text.Sys_Power_VDDRFCalibratedConfig
                0x0011f984       0x44 C:/Users/h274519/ON_Semiconductor/ONSemiconductor/RSL10/3.0.534/lib/Release/libsyslib.a(rsl10_sys_power.o)
                0x0011f984                Sys_Power_VDDRFCalibratedConfig
 .text          0x0011f9c8       0x14 C:/Users/h274519/ON_Semiconductor/ONSemiconductor/RSL10/3.0.534/lib/Release/libcmsis.a(startup_rsl10.o)
                0x0011f9c8                NMI_Handler
                0x0011f9ca                HardFault_Handler
                0x0011f9cc                MemManage_Handler
                0x0011f9ce                BusFault_Handler
                0x0011f9d0                UsageFault_Handler
                0x0011f9d2                SVC_Handler
                0x0011f9d4                DebugMon_Handler
                0x0011f9d6                PendSV_Handler
                0x0011f9d8                SysTick_Handler
                0x0011f9da                UART_ERROR_IRQHandler
                0x0011f9da                DSP7_IRQHandler
                0x0011f9da                BLE_COEX_RX_TX_IRQHandler
                0x0011f9da                DMA2_IRQHandler
                0x0011f9da                DSP2_IRQHandler
                0x0011f9da                MEMORY_ERROR_IRQHandler
                0x0011f9da                TIMER3_IRQHandler
                0x0011f9da                WATCHDOG_IRQHandler
                0x0011f9da                DIO1_IRQHandler
                0x0011f9da                DIO3_IRQHandler
                0x0011f9da                DSP3_IRQHandler
                0x0011f9da                FLASH_COPY_IRQHandler
                0x0011f9da                RF_TXFIFO_IRQHandler
                0x0011f9da                RTC_ALARM_IRQHandler
                0x0011f9da                SPI0_ERROR_IRQHandler
                0x0011f9da                BLE_COEX_IN_PROCESS_IRQHandler
                0x0011f9da                DIO0_IRQHandler
                0x0011f9da                DMA5_IRQHandler
                0x0011f9da                ASRC_IN_IRQHandler
                0x0011f9da                SPI1_ERROR_IRQHandler
                0x0011f9da                DMIC_OD_ERROR_IRQHandler
                0x0011f9da                TIMER1_IRQHandler
                0x0011f9da                PCM_TX_IRQHandler
                0x0011f9da                DSP0_IRQHandler
                0x0011f9da                SPI0_TX_IRQHandler
                0x0011f9da                UART_TX_IRQHandler
                0x0011f9da                Default_Handler
                0x0011f9da                DMIC_OUT_OD_IN_IRQHandler
                0x0011f9da                ADC_BATMON_IRQHandler
                0x0011f9da                DMA7_IRQHandler
                0x0011f9da                PCM_RX_IRQHandler
                0x0011f9da                RF_TX_IRQHandler
                0x0011f9da                SPI0_RX_IRQHandler
                0x0011f9da                ASRC_ERROR_IRQHandler
                0x0011f9da                RF_RXSTOP_IRQHandler
                0x0011f9da                DSP1_IRQHandler
                0x0011f9da                AUDIOSINK_PHASE_IRQHandler
                0x0011f9da                WAKEUP_IRQHandler
                0x0011f9da                RF_SYNC_IRQHandler
                0x0011f9da                SPI1_RX_IRQHandler
                0x0011f9da                CLKDET_IRQHandler
                0x0011f9da                DSP6_IRQHandler
                0x0011f9da                I2C_IRQHandler
                0x0011f9da                TIMER2_IRQHandler
                0x0011f9da                AUDIOSINK_PERIOD_IRQHandler
                0x0011f9da                TIMER0_IRQHandler
                0x0011f9da                DMA3_IRQHandler
                0x0011f9da                RTC_CLOCK_IRQHandler
                0x0011f9da                DIO2_IRQHandler
                0x0011f9da                DMA0_IRQHandler
                0x0011f9da                ASRC_OUT_IRQHandler
                0x0011f9da                PCM_ERROR_IRQHandler
                0x0011f9da                DSP5_IRQHandler
                0x0011f9da                DMA4_IRQHandler
                0x0011f9da                UART_RX_IRQHandler
                0x0011f9da                FLASH_ECC_IRQHandler
                0x0011f9da                SPI1_TX_IRQHandler
                0x0011f9da                RF_IRQ_RECEIVED_IRQHandler
                0x0011f9da                DSP4_IRQHandler
                0x0011f9da                DMA6_IRQHandler
                0x0011f9da                RF_RXFIFO_IRQHandler
 .text._start   0x0011f9dc      0x170 C:/Users/h274519/ON_Semiconductor/ONSemiconductor/RSL10/3.0.534/lib/Release/libcmsis.a(start.o)
                0x0011f9dc                _start
 .text.System_GetTargetForTrim
                0x0011fb4c       0x32 C:/Users/h274519/ON_Semiconductor/ONSemiconductor/RSL10/3.0.534/lib/Release/libcmsis.a(system_rsl10.o)
                0x0011fb4c                System_GetTargetForTrim
 *fill*         0x0011fb7e        0x2 
 .text.SystemInit
                0x0011fb80       0x24 C:/Users/h274519/ON_Semiconductor/ONSemiconductor/RSL10/3.0.534/lib/Release/libcmsis.a(system_rsl10.o)
                0x0011fb80                SystemInit
 .text.SystemCoreClockUpdate
                0x0011fba4      0x168 C:/Users/h274519/ON_Semiconductor/ONSemiconductor/RSL10/3.0.534/lib/Release/libcmsis.a(system_rsl10.o)
                0x0011fba4                SystemCoreClockUpdate
 .text._sbrk    0x0011fd0c       0x58 C:/Users/h274519/ON_Semiconductor/ONSemiconductor/RSL10/3.0.534/lib/Release/libcmsis.a(sbrk.o)
                0x0011fd0c                _sbrk
 .text.diss_create
                0x0011fd64        0x2 C:\Users\h274519\ON_Semiconductor\ONSemiconductor\RSL10\3.0.534\lib\ble_profiles\Release\libDISS.a(diss.o)
 .text.diss_cleanup
                0x0011fd66        0x2 C:\Users\h274519\ON_Semiconductor\ONSemiconductor\RSL10\3.0.534\lib\ble_profiles\Release\libDISS.a(diss.o)
 .text.diss_destroy
                0x0011fd68       0x24 C:\Users\h274519\ON_Semiconductor\ONSemiconductor\RSL10\3.0.534\lib\ble_profiles\Release\libDISS.a(diss.o)
 .text.diss_prf_itf_get
                0x0011fd8c        0x8 C:\Users\h274519\ON_Semiconductor\ONSemiconductor\RSL10\3.0.534\lib\ble_profiles\Release\libDISS.a(diss.o)
                0x0011fd8c                diss_prf_itf_get
 .text.diss_compute_cfg_flag
                0x0011fd94       0x28 C:\Users\h274519\ON_Semiconductor\ONSemiconductor\RSL10\3.0.534\lib\ble_profiles\Release\libDISS.a(diss.o)
                0x0011fd94                diss_compute_cfg_flag
 .text.diss_init
                0x0011fdbc       0xa0 C:\Users\h274519\ON_Semiconductor\ONSemiconductor\RSL10\3.0.534\lib\ble_profiles\Release\libDISS.a(diss.o)
 .text.diss_handle_to_value
                0x0011fe5c       0x2a C:\Users\h274519\ON_Semiconductor\ONSemiconductor\RSL10\3.0.534\lib\ble_profiles\Release\libDISS.a(diss.o)
                0x0011fe5c                diss_handle_to_value
 .text.diss_value_to_handle
                0x0011fe86       0x2c C:\Users\h274519\ON_Semiconductor\ONSemiconductor\RSL10\3.0.534\lib\ble_profiles\Release\libDISS.a(diss.o)
                0x0011fe86                diss_value_to_handle
 .text.diss_check_val_len
                0x0011feb2       0x30 C:\Users\h274519\ON_Semiconductor\ONSemiconductor\RSL10\3.0.534\lib\ble_profiles\Release\libDISS.a(diss.o)
                0x0011feb2                diss_check_val_len
 .text.diss_set_value_req_handler
                0x0011fee2       0x98 C:\Users\h274519\ON_Semiconductor\ONSemiconductor\RSL10\3.0.534\lib\ble_profiles\Release\libDISS.a(diss_task.o)
 .text.diss_value_cfm_handler
                0x0011ff7a       0x7e C:\Users\h274519\ON_Semiconductor\ONSemiconductor\RSL10\3.0.534\lib\ble_profiles\Release\libDISS.a(diss_task.o)
 .text.gattc_read_req_ind_handler
                0x0011fff8       0xca C:\Users\h274519\ON_Semiconductor\ONSemiconductor\RSL10\3.0.534\lib\ble_profiles\Release\libDISS.a(diss_task.o)
 *fill*         0x001200c2        0x2 
 .text          0x001200c4      0x370 c:/program files (x86)/on semiconductor/ide/arm_tools/bin/../lib/gcc/arm-none-eabi/6.3.1/thumb/v7-m\libgcc.a(_arm_addsubdf3.o)
                0x001200c4                __aeabi_drsub
                0x001200cc                __aeabi_dsub
                0x001200cc                __subdf3
                0x001200d0                __aeabi_dadd
                0x001200d0                __adddf3
                0x00120348                __floatunsidf
                0x00120348                __aeabi_ui2d
                0x00120368                __floatsidf
                0x00120368                __aeabi_i2d
                0x0012038c                __aeabi_f2d
                0x0012038c                __extendsfdf2
                0x001203c8                __floatundidf
                0x001203c8                __aeabi_ul2d
                0x001203d8                __floatdidf
                0x001203d8                __aeabi_l2d
 .text          0x00120434      0x424 c:/program files (x86)/on semiconductor/ide/arm_tools/bin/../lib/gcc/arm-none-eabi/6.3.1/thumb/v7-m\libgcc.a(_arm_muldivdf3.o)
                0x00120434                __aeabi_dmul
                0x00120434                __muldf3
                0x00120688                __divdf3
                0x00120688                __aeabi_ddiv
 .text          0x00120858       0x50 c:/program files (x86)/on semiconductor/ide/arm_tools/bin/../lib/gcc/arm-none-eabi/6.3.1/thumb/v7-m\libgcc.a(_arm_fixdfsi.o)
                0x00120858                __aeabi_d2iz
                0x00120858                __fixdfsi
 .text          0x001208a8       0x40 c:/program files (x86)/on semiconductor/ide/arm_tools/bin/../lib/gcc/arm-none-eabi/6.3.1/thumb/v7-m\libgcc.a(_arm_fixunsdfsi.o)
                0x001208a8                __aeabi_d2uiz
                0x001208a8                __fixunsdfsi
 .text          0x001208e8       0xa0 c:/program files (x86)/on semiconductor/ide/arm_tools/bin/../lib/gcc/arm-none-eabi/6.3.1/thumb/v7-m\libgcc.a(_arm_truncdfsf2.o)
                0x001208e8                __truncdfsf2
                0x001208e8                __aeabi_d2f
 .text          0x00120988       0x4c c:/program files (x86)/on semiconductor/ide/arm_tools/bin/../lib/gcc/arm-none-eabi/6.3.1/thumb/v7-m\libgcc.a(_arm_fixsfsi.o)
                0x00120988                __aeabi_f2iz
                0x00120988                __fixsfsi
 .text.__errno  0x001209d4        0xc c:/program files (x86)/on semiconductor/ide/arm_tools/bin/../lib/gcc/arm-none-eabi/6.3.1/../../../../arm-none-eabi/lib/thumb/v7-m\libg_nano.a(lib_a-errno.o)
                0x001209d4                __errno
 .text.malloc   0x001209e0       0x10 c:/program files (x86)/on semiconductor/ide/arm_tools/bin/../lib/gcc/arm-none-eabi/6.3.1/../../../../arm-none-eabi/lib/thumb/v7-m\libg_nano.a(lib_a-malloc.o)
                0x001209e0                malloc
 .text.free     0x001209f0       0x10 c:/program files (x86)/on semiconductor/ide/arm_tools/bin/../lib/gcc/arm-none-eabi/6.3.1/../../../../arm-none-eabi/lib/thumb/v7-m\libg_nano.a(lib_a-malloc.o)
                0x001209f0                free
 .text.memcmp   0x00120a00       0x1e c:/program files (x86)/on semiconductor/ide/arm_tools/bin/../lib/gcc/arm-none-eabi/6.3.1/../../../../arm-none-eabi/lib/thumb/v7-m\libg_nano.a(lib_a-memcmp.o)
                0x00120a00                memcmp
 .text.memcpy   0x00120a1e       0x16 c:/program files (x86)/on semiconductor/ide/arm_tools/bin/../lib/gcc/arm-none-eabi/6.3.1/../../../../arm-none-eabi/lib/thumb/v7-m\libg_nano.a(lib_a-memcpy-stub.o)
                0x00120a1e                memcpy
 .text.memset   0x00120a34       0x10 c:/program files (x86)/on semiconductor/ide/arm_tools/bin/../lib/gcc/arm-none-eabi/6.3.1/../../../../arm-none-eabi/lib/thumb/v7-m\libg_nano.a(lib_a-memset.o)
                0x00120a34                memset
 .text._free_r  0x00120a44       0x98 c:/program files (x86)/on semiconductor/ide/arm_tools/bin/../lib/gcc/arm-none-eabi/6.3.1/../../../../arm-none-eabi/lib/thumb/v7-m\libg_nano.a(lib_a-nano-freer.o)
                0x00120a44                _free_r
 .text._malloc_r
                0x00120adc       0xbc c:/program files (x86)/on semiconductor/ide/arm_tools/bin/../lib/gcc/arm-none-eabi/6.3.1/../../../../arm-none-eabi/lib/thumb/v7-m\libg_nano.a(lib_a-nano-mallocr.o)
                0x00120adc                _malloc_r
 .text.srand    0x00120b98       0x50 c:/program files (x86)/on semiconductor/ide/arm_tools/bin/../lib/gcc/arm-none-eabi/6.3.1/../../../../arm-none-eabi/lib/thumb/v7-m\libg_nano.a(lib_a-rand.o)
                0x00120b98                srand
 .text.rand     0x00120be8       0x74 c:/program files (x86)/on semiconductor/ide/arm_tools/bin/../lib/gcc/arm-none-eabi/6.3.1/../../../../arm-none-eabi/lib/thumb/v7-m\libg_nano.a(lib_a-rand.o)
                0x00120be8                rand
 .text._sbrk_r  0x00120c5c       0x20 c:/program files (x86)/on semiconductor/ide/arm_tools/bin/../lib/gcc/arm-none-eabi/6.3.1/../../../../arm-none-eabi/lib/thumb/v7-m\libg_nano.a(lib_a-sbrkr.o)
                0x00120c5c                _sbrk_r
 .text.__malloc_lock
                0x00120c7c        0x2 c:/program files (x86)/on semiconductor/ide/arm_tools/bin/../lib/gcc/arm-none-eabi/6.3.1/../../../../arm-none-eabi/lib/thumb/v7-m\libg_nano.a(lib_a-mlock.o)
                0x00120c7c                __malloc_lock
 .text.__malloc_unlock
                0x00120c7e        0x2 c:/program files (x86)/on semiconductor/ide/arm_tools/bin/../lib/gcc/arm-none-eabi/6.3.1/../../../../arm-none-eabi/lib/thumb/v7-m\libg_nano.a(lib_a-mlock.o)
                0x00120c7e                __malloc_unlock
 *(.rodata .rodata.*)
 .rodata.TASK_DESC_APP
                0x00120c80       0x10 ./code/app_process.o
                0x00120c80                TASK_DESC_APP
 .rodata.appm_default_state
                0x00120c90       0x98 ./code/app_process.o
                0x00120c90                appm_default_state
 .rodata.appm_default_handler
                0x00120d28        0x8 ./code/app_process.o
                0x00120d28                appm_default_handler
 .rodata        0x00120d30       0xd5 ./code/ble_custom.o
 *fill*         0x00120e05        0x3 
 .rodata        0x00120e08       0x5b ./code/ble_diss.o
 *fill*         0x00120e63        0x1 
 .rodata.appm_add_svc_func_list
                0x00120e64       0x10 ./code/ble_std.o
                0x00120e64                appm_add_svc_func_list
 .rodata.appm_enable_svc_func_list
                0x00120e74        0x8 ./code/ble_std.o
                0x00120e74                appm_enable_svc_func_list
 .rodata        0x00120e7c       0x2d ./code/ble_std.o
 .rodata.rwip_coex_cfg
                0x00120ea9        0x5 C:/Users/h274519/ON_Semiconductor/ONSemiconductor/RSL10/3.0.534/lib/ble_core/Release/libblelib.a(rwip.o)
                0x00120ea9                rwip_coex_cfg
 .rodata.rwip_priority
                0x00120eae        0xe C:/Users/h274519/ON_Semiconductor/ONSemiconductor/RSL10/3.0.534/lib/ble_core/Release/libblelib.a(rwip.o)
                0x00120eae                rwip_priority
 .rodata.RF_ATL_FREQ_TBL40
                0x00120ebc       0xa0 C:/Users/h274519/ON_Semiconductor/ONSemiconductor/RSL10/3.0.534/lib/ble_core/Release/libblelib.a(rf_atlas.o)
                0x00120ebc                RF_ATL_FREQ_TBL40
 .rodata.RF_ATL_REG_TBL_40_1MBPS
                0x00120f5c       0xc0 C:/Users/h274519/ON_Semiconductor/ONSemiconductor/RSL10/3.0.534/lib/ble_core/Release/libblelib.a(rf_atlas.o)
                0x00120f5c                RF_ATL_REG_TBL_40_1MBPS
 .rodata.RF_ATL_REG_TBL_40_2MBPS
                0x0012101c       0xc0 C:/Users/h274519/ON_Semiconductor/ONSemiconductor/RSL10/3.0.534/lib/ble_core/Release/libblelib.a(rf_atlas.o)
                0x0012101c                RF_ATL_REG_TBL_40_2MBPS
 .rodata.hci_def_evt_msk
                0x001210dc        0x8 C:/Users/h274519/ON_Semiconductor/ONSemiconductor/RSL10/3.0.534/lib/ble_core/Release/libblelib.a(hci.o)
 .rodata.hci_rsvd_evt_msk
                0x001210e4        0x8 C:/Users/h274519/ON_Semiconductor/ONSemiconductor/RSL10/3.0.534/lib/ble_core/Release/libblelib.a(hci.o)
 .rodata.hci_cmd_desc_root_tab
                0x001210ec       0x30 C:/Users/h274519/ON_Semiconductor/ONSemiconductor/RSL10/3.0.534/lib/ble_core/Release/libblelib.a(hci_msg.o)
                0x001210ec                hci_cmd_desc_root_tab
 .rodata.hci_cmd_desc_tab_ctrl_bb
                0x0012111c       0x28 C:/Users/h274519/ON_Semiconductor/ONSemiconductor/RSL10/3.0.534/lib/ble_core/Release/libblelib.a(hci_msg.o)
                0x0012111c                hci_cmd_desc_tab_ctrl_bb
 .rodata.hci_cmd_desc_tab_info_par
                0x00121144       0x14 C:/Users/h274519/ON_Semiconductor/ONSemiconductor/RSL10/3.0.534/lib/ble_core/Release/libblelib.a(hci_msg.o)
                0x00121144                hci_cmd_desc_tab_info_par
 .rodata.hci_cmd_desc_tab_le
                0x00121158       0xd4 C:/Users/h274519/ON_Semiconductor/ONSemiconductor/RSL10/3.0.534/lib/ble_core/Release/libblelib.a(hci_msg.o)
                0x00121158                hci_cmd_desc_tab_le
 .rodata.hci_cmd_desc_tab_lk_ctrl
                0x0012122c        0xc C:/Users/h274519/ON_Semiconductor/ONSemiconductor/RSL10/3.0.534/lib/ble_core/Release/libblelib.a(hci_msg.o)
                0x0012122c                hci_cmd_desc_tab_lk_ctrl
 .rodata.hci_cmd_desc_tab_stat_par
                0x00121238        0x4 C:/Users/h274519/ON_Semiconductor/ONSemiconductor/RSL10/3.0.534/lib/ble_core/Release/libblelib.a(hci_msg.o)
                0x00121238                hci_cmd_desc_tab_stat_par
 .rodata.hci_cmd_desc_tab_vs
                0x0012123c       0x10 C:/Users/h274519/ON_Semiconductor/ONSemiconductor/RSL10/3.0.534/lib/ble_core/Release/libblelib.a(hci_msg.o)
                0x0012123c                hci_cmd_desc_tab_vs
 .rodata.hci_evt_desc_tab
                0x0012124c       0x12 C:/Users/h274519/ON_Semiconductor/ONSemiconductor/RSL10/3.0.534/lib/ble_core/Release/libblelib.a(hci_msg.o)
                0x0012124c                hci_evt_desc_tab
 .rodata.hci_evt_le_desc_tab
                0x0012125e       0x18 C:/Users/h274519/ON_Semiconductor/ONSemiconductor/RSL10/3.0.534/lib/ble_core/Release/libblelib.a(hci_msg.o)
                0x0012125e                hci_evt_le_desc_tab
 .rodata.CSWTCH.69
                0x00121276        0x7 C:/Users/h274519/ON_Semiconductor/ONSemiconductor/RSL10/3.0.534/lib/ble_core/Release/libblelib.a(llm.o)
 *fill*         0x0012127d        0x3 
 .rodata.TASK_DESC_LLM
                0x00121280       0x10 C:/Users/h274519/ON_Semiconductor/ONSemiconductor/RSL10/3.0.534/lib/ble_core/Release/libblelib.a(llm.o)
 .rodata.llm_dflt_bdaddr
                0x00121290        0x6 C:/Users/h274519/ON_Semiconductor/ONSemiconductor/RSL10/3.0.534/lib/ble_core/Release/libblelib.a(llm.o)
 .rodata.llm_local_cmds
                0x00121296       0x40 C:/Users/h274519/ON_Semiconductor/ONSemiconductor/RSL10/3.0.534/lib/ble_core/Release/libblelib.a(llm.o)
                0x00121296                llm_local_cmds
 .rodata.llm_local_data_len_values
                0x001212d6        0xc C:/Users/h274519/ON_Semiconductor/ONSemiconductor/RSL10/3.0.534/lib/ble_core/Release/libblelib.a(llm.o)
                0x001212d6                llm_local_data_len_values
 .rodata.llm_local_le_feats
                0x001212e2        0x8 C:/Users/h274519/ON_Semiconductor/ONSemiconductor/RSL10/3.0.534/lib/ble_core/Release/libblelib.a(llm.o)
                0x001212e2                llm_local_le_feats
 .rodata.llm_local_le_states
                0x001212ea        0x8 C:/Users/h274519/ON_Semiconductor/ONSemiconductor/RSL10/3.0.534/lib/ble_core/Release/libblelib.a(llm.o)
                0x001212ea                llm_local_le_states
 *fill*         0x001212f2        0x2 
 .rodata.llm_default_handler
                0x001212f4        0x8 C:/Users/h274519/ON_Semiconductor/ONSemiconductor/RSL10/3.0.534/lib/ble_core/Release/libblelib.a(llm_task.o)
                0x001212f4                llm_default_handler
 .rodata.llm_default_state
                0x001212fc       0x40 C:/Users/h274519/ON_Semiconductor/ONSemiconductor/RSL10/3.0.534/lib/ble_core/Release/libblelib.a(llm_task.o)
 .rodata.LLM_AA_CT1
                0x0012133c        0x3 C:/Users/h274519/ON_Semiconductor/ONSemiconductor/RSL10/3.0.534/lib/ble_core/Release/libblelib.a(llm_util.o)
                0x0012133c                LLM_AA_CT1
 .rodata.LLM_AA_CT2
                0x0012133f        0x2 C:/Users/h274519/ON_Semiconductor/ONSemiconductor/RSL10/3.0.534/lib/ble_core/Release/libblelib.a(llm_util.o)
                0x0012133f                LLM_AA_CT2
 *fill*         0x00121341        0x3 
 .rodata.TASK_DESC_LLD
                0x00121344       0x10 C:/Users/h274519/ON_Semiconductor/ONSemiconductor/RSL10/3.0.534/lib/ble_core/Release/libblelib.a(lld.o)
 .rodata.lld_pdu_adv_pk_desc_tab
                0x00121354       0x54 C:/Users/h274519/ON_Semiconductor/ONSemiconductor/RSL10/3.0.534/lib/ble_core/Release/libblelib.a(lld_pdu.o)
                0x00121354                lld_pdu_adv_pk_desc_tab
 .rodata.lld_pdu_llcp_pk_desc_tab
                0x001213a8      0x12c C:/Users/h274519/ON_Semiconductor/ONSemiconductor/RSL10/3.0.534/lib/ble_core/Release/libblelib.a(lld_pdu.o)
                0x001213a8                lld_pdu_llcp_pk_desc_tab
 .rodata.str1.1
                0x001214d4       0x46 C:/Users/h274519/ON_Semiconductor/ONSemiconductor/RSL10/3.0.534/lib/ble_core/Release/libblelib.a(lld_pdu.o)
                                 0x55 (size before relaxing)
 *fill*         0x0012151a        0x2 
 .rodata.TASK_DESC_LLC
                0x0012151c       0x10 C:/Users/h274519/ON_Semiconductor/ONSemiconductor/RSL10/3.0.534/lib/ble_core/Release/libblelib.a(llc.o)
 .rodata.llcp_pdu_handler
                0x0012152c       0xc8 C:/Users/h274519/ON_Semiconductor/ONSemiconductor/RSL10/3.0.534/lib/ble_core/Release/libblelib.a(llc_llcp.o)
 .rodata.llc_default_handler
                0x001215f4        0x8 C:/Users/h274519/ON_Semiconductor/ONSemiconductor/RSL10/3.0.534/lib/ble_core/Release/libblelib.a(llc_task.o)
                0x001215f4                llc_default_handler
 .rodata.llc_default_state
                0x001215fc       0x88 C:/Users/h274519/ON_Semiconductor/ONSemiconductor/RSL10/3.0.534/lib/ble_core/Release/libblelib.a(llc_task.o)
 .rodata.TASK_DESC_L2CC
                0x00121684       0x10 C:/Users/h274519/ON_Semiconductor/ONSemiconductor/RSL10/3.0.534/lib/ble_core/Release/libblelib.a(l2cc.o)
 .rodata.l2cc_attribute_pkt_format
                0x00121694       0x7c C:/Users/h274519/ON_Semiconductor/ONSemiconductor/RSL10/3.0.534/lib/ble_core/Release/libblelib.a(l2cc_pdu.o)
 .rodata.l2cc_security_pkt_format
                0x00121710       0x3c C:/Users/h274519/ON_Semiconductor/ONSemiconductor/RSL10/3.0.534/lib/ble_core/Release/libblelib.a(l2cc_pdu.o)
 .rodata.l2cc_signaling_pkt_format
                0x0012174c       0x5c C:/Users/h274519/ON_Semiconductor/ONSemiconductor/RSL10/3.0.534/lib/ble_core/Release/libblelib.a(l2cc_pdu.o)
 .rodata.str1.1
                0x001217a8       0x3e C:/Users/h274519/ON_Semiconductor/ONSemiconductor/RSL10/3.0.534/lib/ble_core/Release/libblelib.a(l2cc_pdu.o)
                                 0x55 (size before relaxing)
 *fill*         0x001217e6        0x2 
 .rodata.l2cc_default_handler
                0x001217e8        0x8 C:/Users/h274519/ON_Semiconductor/ONSemiconductor/RSL10/3.0.534/lib/ble_core/Release/libblelib.a(l2cc_task.o)
                0x001217e8                l2cc_default_handler
 .rodata.l2cc_default_state
                0x001217f0       0x60 C:/Users/h274519/ON_Semiconductor/ONSemiconductor/RSL10/3.0.534/lib/ble_core/Release/libblelib.a(l2cc_task.o)
                0x001217f0                l2cc_default_state
 .rodata        0x00121850        0x4 C:/Users/h274519/ON_Semiconductor/ONSemiconductor/RSL10/3.0.534/lib/ble_core/Release/libblelib.a(gattm.o)
 .rodata.TASK_DESC_GATTM
                0x00121854       0x10 C:/Users/h274519/ON_Semiconductor/ONSemiconductor/RSL10/3.0.534/lib/ble_core/Release/libblelib.a(gattm.o)
 .rodata.gattm_att_db
                0x00121864       0x20 C:/Users/h274519/ON_Semiconductor/ONSemiconductor/RSL10/3.0.534/lib/ble_core/Release/libblelib.a(gattm.o)
 .rodata.gattm_default_handler
                0x00121884        0x8 C:/Users/h274519/ON_Semiconductor/ONSemiconductor/RSL10/3.0.534/lib/ble_core/Release/libblelib.a(gattm_task.o)
                0x00121884                gattm_default_handler
 .rodata.gattm_default_state
                0x0012188c       0x40 C:/Users/h274519/ON_Semiconductor/ONSemiconductor/RSL10/3.0.534/lib/ble_core/Release/libblelib.a(gattm_task.o)
                0x0012188c                gattm_default_state
 .rodata.TASK_DESC_GATTC
                0x001218cc       0x10 C:/Users/h274519/ON_Semiconductor/ONSemiconductor/RSL10/3.0.534/lib/ble_core/Release/libblelib.a(gattc.o)
 .rodata        0x001218dc       0x1b C:/Users/h274519/ON_Semiconductor/ONSemiconductor/RSL10/3.0.534/lib/ble_core/Release/libblelib.a(gattc_task.o)
 *fill*         0x001218f7        0x1 
 .rodata.gattc_default_handler
                0x001218f8        0x8 C:/Users/h274519/ON_Semiconductor/ONSemiconductor/RSL10/3.0.534/lib/ble_core/Release/libblelib.a(gattc_task.o)
                0x001218f8                gattc_default_handler
 .rodata.gattc_default_state
                0x00121900       0xe0 C:/Users/h274519/ON_Semiconductor/ONSemiconductor/RSL10/3.0.534/lib/ble_core/Release/libblelib.a(gattc_task.o)
                0x00121900                gattc_default_state
 .rodata.atts_handlers
                0x001219e0       0x68 C:/Users/h274519/ON_Semiconductor/ONSemiconductor/RSL10/3.0.534/lib/ble_core/Release/libblelib.a(atts.o)
                0x001219e0                atts_handlers
 .rodata.atts_rights
                0x00121a48       0x24 C:/Users/h274519/ON_Semiconductor/ONSemiconductor/RSL10/3.0.534/lib/ble_core/Release/libblelib.a(atts.o)
 .rodata        0x00121a6c       0x10 C:/Users/h274519/ON_Semiconductor/ONSemiconductor/RSL10/3.0.534/lib/ble_core/Release/libblelib.a(attm.o)
 .rodata.attc_handlers
                0x00121a7c       0x70 C:/Users/h274519/ON_Semiconductor/ONSemiconductor/RSL10/3.0.534/lib/ble_core/Release/libblelib.a(attc.o)
                0x00121a7c                attc_handlers
 .rodata.TASK_DESC_GAPM
                0x00121aec       0x10 C:/Users/h274519/ON_Semiconductor/ONSemiconductor/RSL10/3.0.534/lib/ble_core/Release/libblelib.a(gapm.o)
 .rodata.gapm_att_db
                0x00121afc       0x48 C:/Users/h274519/ON_Semiconductor/ONSemiconductor/RSL10/3.0.534/lib/ble_core/Release/libblelib.a(gapm.o)
 .rodata        0x00121b44       0x28 C:/Users/h274519/ON_Semiconductor/ONSemiconductor/RSL10/3.0.534/lib/ble_core/Release/libblelib.a(gapm_task.o)
 .rodata.gapm_default_handler
                0x00121b6c        0x8 C:/Users/h274519/ON_Semiconductor/ONSemiconductor/RSL10/3.0.534/lib/ble_core/Release/libblelib.a(gapm_task.o)
                0x00121b6c                gapm_default_handler
 .rodata.gapm_default_state
                0x00121b74      0x118 C:/Users/h274519/ON_Semiconductor/ONSemiconductor/RSL10/3.0.534/lib/ble_core/Release/libblelib.a(gapm_task.o)
                0x00121b74                gapm_default_state
 .rodata.TASK_DESC_GAPC
                0x00121c8c       0x10 C:/Users/h274519/ON_Semiconductor/ONSemiconductor/RSL10/3.0.534/lib/ble_core/Release/libblelib.a(gapc.o)
 .rodata        0x00121c9c        0xe C:/Users/h274519/ON_Semiconductor/ONSemiconductor/RSL10/3.0.534/lib/ble_core/Release/libblelib.a(gapc_task.o)
 *fill*         0x00121caa        0x2 
 .rodata.gapc_default_handler
                0x00121cac        0x8 C:/Users/h274519/ON_Semiconductor/ONSemiconductor/RSL10/3.0.534/lib/ble_core/Release/libblelib.a(gapc_task.o)
                0x00121cac                gapc_default_handler
 .rodata.gapc_default_state
                0x00121cb4      0x128 C:/Users/h274519/ON_Semiconductor/ONSemiconductor/RSL10/3.0.534/lib/ble_core/Release/libblelib.a(gapc_task.o)
                0x00121cb4                gapc_default_state
 .rodata.BasePoint_x_256
                0x00121ddc       0x20 C:/Users/h274519/ON_Semiconductor/ONSemiconductor/RSL10/3.0.534/lib/ble_core/Release/libblelib.a(ecc_p256.o)
                0x00121ddc                BasePoint_x_256
 .rodata.BasePoint_y_256
                0x00121dfc       0x20 C:/Users/h274519/ON_Semiconductor/ONSemiconductor/RSL10/3.0.534/lib/ble_core/Release/libblelib.a(ecc_p256.o)
                0x00121dfc                BasePoint_y_256
 .rodata.ECC_4Win_Look_up_table
                0x00121e1c      0x7bc C:/Users/h274519/ON_Semiconductor/ONSemiconductor/RSL10/3.0.534/lib/ble_core/Release/libblelib.a(ecc_p256.o)
                0x00121e1c                ECC_4Win_Look_up_table
 .rodata.bigHexP256
                0x001225d8       0x2c C:/Users/h274519/ON_Semiconductor/ONSemiconductor/RSL10/3.0.534/lib/ble_core/Release/libblelib.a(ecc_p256.o)
                0x001225d8                bigHexP256
 .rodata.coef_B
                0x00122604       0x2c C:/Users/h274519/ON_Semiconductor/ONSemiconductor/RSL10/3.0.534/lib/ble_core/Release/libblelib.a(ecc_p256.o)
                0x00122604                coef_B
 .rodata.ecc_Jacobian_InfinityPoint256
                0x00122630       0x84 C:/Users/h274519/ON_Semiconductor/ONSemiconductor/RSL10/3.0.534/lib/ble_core/Release/libblelib.a(ecc_p256.o)
                0x00122630                ecc_Jacobian_InfinityPoint256
 .rodata.maxSecretKey_256
                0x001226b4       0x20 C:/Users/h274519/ON_Semiconductor/ONSemiconductor/RSL10/3.0.534/lib/ble_core/Release/libblelib.a(ecc_p256.o)
                0x001226b4                maxSecretKey_256
 .rodata.veryBigHexP256
                0x001226d4       0x50 C:/Users/h274519/ON_Semiconductor/ONSemiconductor/RSL10/3.0.534/lib/ble_core/Release/libblelib.a(ecc_p256.o)
                0x001226d4                veryBigHexP256
 .rodata.llm_hci_command_handler_tab
                0x00122724      0x1a0 C:/Users/h274519/ON_Semiconductor/ONSemiconductor/RSL10/3.0.534/lib/ble_core/Release/libblelib.a(llm_hci.o)
 .rodata.llc_hci_command_handler_tab
                0x001228c4       0x98 C:/Users/h274519/ON_Semiconductor/ONSemiconductor/RSL10/3.0.534/lib/ble_core/Release/libblelib.a(llc_hci.o)
 .rodata.CSWTCH.14
                0x0012295c        0x3 C:/Users/h274519/ON_Semiconductor/ONSemiconductor/RSL10/3.0.534/lib/ble_core/Release/libblelib.a(l2cc_sig.o)
 .rodata.CSWTCH.7
                0x0012295f        0xc C:/Users/h274519/ON_Semiconductor/ONSemiconductor/RSL10/3.0.534/lib/ble_core/Release/libblelib.a(l2cc_sig.o)
 *fill*         0x0012296b        0x1 
 .rodata.l2cc_sig_handlers
                0x0012296c       0x40 C:/Users/h274519/ON_Semiconductor/ONSemiconductor/RSL10/3.0.534/lib/ble_core/Release/libblelib.a(l2cc_sig.o)
                0x0012296c                l2cc_sig_handlers
 .rodata.smpc_pair_method
                0x001229ac       0x19 C:/Users/h274519/ON_Semiconductor/ONSemiconductor/RSL10/3.0.534/lib/ble_core/Release/libblelib.a(smpc.o)
 .rodata        0x001229c5       0x14 C:/Users/h274519/ON_Semiconductor/ONSemiconductor/RSL10/3.0.534/lib/ble_core/Release/libblelib.a(smpc_crypto.o)
 *fill*         0x001229d9        0x3 
 .rodata.smpc_construct_pdu
                0x001229dc       0x3c C:/Users/h274519/ON_Semiconductor/ONSemiconductor/RSL10/3.0.534/lib/ble_core/Release/libblelib.a(smpc_util.o)
                0x001229dc                smpc_construct_pdu
 .rodata.smpc_recv_pdu
                0x00122a18       0x3c C:/Users/h274519/ON_Semiconductor/ONSemiconductor/RSL10/3.0.534/lib/ble_core/Release/libblelib.a(smpc_util.o)
                0x00122a18                smpc_recv_pdu
 .rodata.gapm_hci_cmd_cmp_event_handler_tab
                0x00122a54      0x140 C:/Users/h274519/ON_Semiconductor/ONSemiconductor/RSL10/3.0.534/lib/ble_core/Release/libblelib.a(gapm_hci.o)
 .rodata.gapm_hci_cmd_stat_event_handler_tab
                0x00122b94       0x10 C:/Users/h274519/ON_Semiconductor/ONSemiconductor/RSL10/3.0.534/lib/ble_core/Release/libblelib.a(gapm_hci.o)
 .rodata.gapm_hci_le_event_handler_tab
                0x00122ba4       0x30 C:/Users/h274519/ON_Semiconductor/ONSemiconductor/RSL10/3.0.534/lib/ble_core/Release/libblelib.a(gapm_hci.o)
 .rodata.hci_cmd_cmp_event_handler_tab
                0x00122bd4       0x48 C:/Users/h274519/ON_Semiconductor/ONSemiconductor/RSL10/3.0.534/lib/ble_core/Release/libblelib.a(gapc_hci.o)
 .rodata.hci_cmd_stat_event_handler_tab
                0x00122c1c       0x30 C:/Users/h274519/ON_Semiconductor/ONSemiconductor/RSL10/3.0.534/lib/ble_core/Release/libblelib.a(gapc_hci.o)
 .rodata.hci_event_handler_tab
                0x00122c4c       0x28 C:/Users/h274519/ON_Semiconductor/ONSemiconductor/RSL10/3.0.534/lib/ble_core/Release/libblelib.a(gapc_hci.o)
 .rodata.hci_le_event_handler_tab
                0x00122c74       0x30 C:/Users/h274519/ON_Semiconductor/ONSemiconductor/RSL10/3.0.534/lib/ble_core/Release/libblelib.a(gapc_hci.o)
 .rodata.CSWTCH.3
                0x00122ca4        0x3 C:/Users/h274519/ON_Semiconductor/ONSemiconductor/RSL10/3.0.534/lib/ble_core/Release/libblelib.a(gapc_sig.o)
 .rodata.co_default_bdaddr
                0x00122ca7        0x6 C:/Users/h274519/ON_Semiconductor/ONSemiconductor/RSL10/3.0.534/lib/ble_core/Release/libkelib.a(co_utils.o)
                0x00122ca7                co_default_bdaddr
 .rodata.co_null_bdaddr
                0x00122cad        0x6 C:/Users/h274519/ON_Semiconductor/ONSemiconductor/RSL10/3.0.534/lib/ble_core/Release/libkelib.a(co_utils.o)
                0x00122cad                co_null_bdaddr
 *fill*         0x00122cb3        0x1 
 .rodata.co_sca2ppm
                0x00122cb4       0x10 C:/Users/h274519/ON_Semiconductor/ONSemiconductor/RSL10/3.0.534/lib/ble_core/Release/libkelib.a(co_utils.o)
                0x00122cb4                co_sca2ppm
 .rodata.bas_att_db
                0x00122cc4       0x28 C:/Users/h274519/ON_Semiconductor/ONSemiconductor/RSL10/3.0.534/lib/ble_profiles/Release/libbass.a(bass.o)
                0x00122cc4                bas_att_db
 .rodata.bass_itf
                0x00122cec       0x10 C:/Users/h274519/ON_Semiconductor/ONSemiconductor/RSL10/3.0.534/lib/ble_profiles/Release/libbass.a(bass.o)
                0x00122cec                bass_itf
 .rodata.bass_default_handler
                0x00122cfc        0x8 C:/Users/h274519/ON_Semiconductor/ONSemiconductor/RSL10/3.0.534/lib/ble_profiles/Release/libbass.a(bass_task.o)
                0x00122cfc                bass_default_handler
 .rodata.bass_default_state
                0x00122d04       0x30 C:/Users/h274519/ON_Semiconductor/ONSemiconductor/RSL10/3.0.534/lib/ble_profiles/Release/libbass.a(bass_task.o)
                0x00122d04                bass_default_state
 .rodata.targetTrim
                0x00122d34        0x7 C:/Users/h274519/ON_Semiconductor/ONSemiconductor/RSL10/3.0.534/lib/Release/libsyslib.a(rsl10_sys_rffe.o)
                0x00122d34                targetTrim
 .rodata.targetVoltage
                0x00122d3b        0x7 C:/Users/h274519/ON_Semiconductor/ONSemiconductor/RSL10/3.0.534/lib/Release/libsyslib.a(rsl10_sys_rffe.o)
                0x00122d3b                targetVoltage
 .rodata.diss_att_db
                0x00122d42       0x98 C:\Users\h274519\ON_Semiconductor\ONSemiconductor\RSL10\3.0.534\lib\ble_profiles\Release\libDISS.a(diss.o)
                0x00122d42                diss_att_db
 *fill*         0x00122dda        0x2 
 .rodata.diss_itf
                0x00122ddc       0x10 C:\Users\h274519\ON_Semiconductor\ONSemiconductor\RSL10\3.0.534\lib\ble_profiles\Release\libDISS.a(diss.o)
                0x00122ddc                diss_itf
 .rodata.diss_default_handler
                0x00122dec        0x8 C:\Users\h274519\ON_Semiconductor\ONSemiconductor\RSL10\3.0.534\lib\ble_profiles\Release\libDISS.a(diss_task.o)
                0x00122dec                diss_default_handler
 .rodata.diss_default_state
                0x00122df4       0x18 C:\Users\h274519\ON_Semiconductor\ONSemiconductor\RSL10\3.0.534\lib\ble_profiles\Release\libDISS.a(diss_task.o)
                0x00122df4                diss_default_state
                0x00122e0c                . = ALIGN (0x4)
                0x00122e0c                __dsp_start__ = .
 *(.dsp .dsp.*)
                0x00122e0c                __dsp_end__ = .
                0x00122e0c                . = ALIGN (0x4)

.glue_7         0x00122e0c        0x0
 .glue_7        0x00122e0c        0x0 linker stubs

.glue_7t        0x00122e0c        0x0
 .glue_7t       0x00122e0c        0x0 linker stubs

.vfp11_veneer   0x00122e0c        0x0
 .vfp11_veneer  0x00122e0c        0x0 linker stubs

.v4_bx          0x00122e0c        0x0
 .v4_bx         0x00122e0c        0x0 linker stubs

.iplt           0x00122e0c        0x0
 .iplt          0x00122e0c        0x0 ./code/app_init.o

.rel.dyn        0x00122e0c        0x0
 .rel.iplt      0x00122e0c        0x0 ./code/app_init.o

.ARM.exidx.reset
                0x00122e0c        0x8
 .ARM.exidx.reset
                0x00122e0c        0x8 C:/Users/h274519/ON_Semiconductor/ONSemiconductor/RSL10/3.0.534/lib/Release/libcmsis.a(startup_rsl10.o)
                0x00122e14                . = ALIGN (0x4)
                0x00122e14                __data_init__ = .

.systemclock    0x20000000        0x4
                0x20000000                . = ALIGN (0x4)
 *(.systemclock)
 .systemclock   0x20000000        0x4 C:/Users/h274519/ON_Semiconductor/ONSemiconductor/RSL10/3.0.534/lib/Release/libcmsis.a(system_rsl10.o)
                0x20000000                SystemCoreClock

.data           0x20000004       0x94 load address 0x00122e14
                0x20000004                . = ALIGN (0x4)
                0x20000004                __data_start__ = .
 *(.data_begin .data_begin.*)
 *(.data .data.*)
 .data.all_ff_bytes
                0x20000004       0x20 C:/Users/h274519/ON_Semiconductor/ONSemiconductor/RSL10/3.0.534/lib/Release/libsyslib.a(rsl10_protocol.o)
 .data.ble_deviceParam
                0x20000024       0x10 C:/Users/h274519/ON_Semiconductor/ONSemiconductor/RSL10/3.0.534/lib/Release/libsyslib.a(rsl10_protocol.o)
                0x20000024                ble_deviceParam
 .data._impure_ptr
                0x20000034        0x4 c:/program files (x86)/on semiconductor/ide/arm_tools/bin/../lib/gcc/arm-none-eabi/6.3.1/../../../../arm-none-eabi/lib/thumb/v7-m\libg_nano.a(lib_a-impure.o)
                0x20000034                _impure_ptr
 .data.impure_data
                0x20000038       0x60 c:/program files (x86)/on semiconductor/ide/arm_tools/bin/../lib/gcc/arm-none-eabi/6.3.1/../../../../arm-none-eabi/lib/thumb/v7-m\libg_nano.a(lib_a-impure.o)
 *(.data_end .data_end.*)
                0x20000098                . = ALIGN (0x4)
                0x20000098                __data_end__ = .

.igot.plt       0x20000098        0x0 load address 0x00122ea8
 .igot.plt      0x20000098        0x0 ./code/app_init.o

.bss            0x20000098     0x4e04 load address 0x00122ea8
                0x20000098                . = ALIGN (0x4)
                0x20000098                __bss_start__ = .
 *(.bss_begin .bss_begin.*)
 *(.bss .bss.*)
 .bss.unhandled_packets
                0x20000098        0x4 ./code/ble_custom.o
                0x20000098                unhandled_packets
 .bss.gapmConfigCmd
                0x2000009c        0x4 ./code/ble_std.o
 .bss.timerFlag
                0x200000a0        0x1 ./code/uart.o
                0x200000a0                timerFlag
 *fill*         0x200000a1        0x3 
 .bss.UARTTXBuffer.25502
                0x200000a4      0xf40 ./code/uart.o
 .bss.UARTRXBuffer.25503
                0x20000fe4      0x7a0 ./code/uart.o
 .bss.period_clk
                0x20001784        0x4 C:/Users/h274519/ON_Semiconductor/ONSemiconductor/RSL10/3.0.534/lib/ble_core/Release/libblelib.a(rwip.o)
 .bss.rcosc_or_extclk
                0x20001788        0x1 C:/Users/h274519/ON_Semiconductor/ONSemiconductor/RSL10/3.0.534/lib/ble_core/Release/libblelib.a(rwip.o)
 *fill*         0x20001789        0x3 
 .bss.sleep_acc_error
                0x2000178c        0x4 C:/Users/h274519/ON_Semiconductor/ONSemiconductor/RSL10/3.0.534/lib/ble_core/Release/libblelib.a(rwip.o)
 .bss.sleep_duration_reduction_slot
                0x20001790        0x4 C:/Users/h274519/ON_Semiconductor/ONSemiconductor/RSL10/3.0.534/lib/ble_core/Release/libblelib.a(rwip.o)
 .bss.sleep_maximum_duration
                0x20001794        0x4 C:/Users/h274519/ON_Semiconductor/ONSemiconductor/RSL10/3.0.534/lib/ble_core/Release/libblelib.a(rwip.o)
 .bss.ble_rand_seed
                0x20001798        0x4 C:/Users/h274519/ON_Semiconductor/ONSemiconductor/RSL10/3.0.534/lib/ble_core/Release/libblelib.a(rwble.o)
                0x20001798                ble_rand_seed
 .bss.ble_is_awake_flag
                0x2000179c        0x1 C:/Users/h274519/ON_Semiconductor/ONSemiconductor/RSL10/3.0.534/lib/ble_core/Release/libblelib.a(lld_sleep.o)
 *fill*         0x2000179d        0x3 
 .bss.lld_sleep_env
                0x200017a0        0x4 C:/Users/h274519/ON_Semiconductor/ONSemiconductor/RSL10/3.0.534/lib/ble_core/Release/libblelib.a(lld_sleep.o)
 .bss.ea_env    0x200017a4       0x20 C:/Users/h274519/ON_Semiconductor/ONSemiconductor/RSL10/3.0.534/lib/ble_core/Release/libblelib.a(ea.o)
 .bss.time_msb.11614
                0x200017c4        0x1 C:/Users/h274519/ON_Semiconductor/ONSemiconductor/RSL10/3.0.534/lib/ble_core/Release/libblelib.a(ea.o)
 *fill*         0x200017c5        0x3 
 .bss.ke_event_env
                0x200017c8       0x30 C:/Users/h274519/ON_Semiconductor/ONSemiconductor/RSL10/3.0.534/lib/ble_core/Release/libkelib.a(ke_event.o)
 .bss.ke_task_env
                0x200017f8       0xc4 C:/Users/h274519/ON_Semiconductor/ONSemiconductor/RSL10/3.0.534/lib/ble_core/Release/libkelib.a(ke_task.o)
 .bss.all_00_bytes
                0x200018bc        0x6 C:/Users/h274519/ON_Semiconductor/ONSemiconductor/RSL10/3.0.534/lib/Release/libsyslib.a(rsl10_protocol.o)
 *fill*         0x200018c2        0x2 
 .bss.heapTop.8164
                0x200018c4        0x4 C:/Users/h274519/ON_Semiconductor/ONSemiconductor/RSL10/3.0.534/lib/Release/libcmsis.a(sbrk.o)
 .bss.__malloc_free_list
                0x200018c8        0x4 c:/program files (x86)/on semiconductor/ide/arm_tools/bin/../lib/gcc/arm-none-eabi/6.3.1/../../../../arm-none-eabi/lib/thumb/v7-m\libg_nano.a(lib_a-nano-mallocr.o)
                0x200018c8                __malloc_free_list
 .bss.__malloc_sbrk_start
                0x200018cc        0x4 c:/program files (x86)/on semiconductor/ide/arm_tools/bin/../lib/gcc/arm-none-eabi/6.3.1/../../../../arm-none-eabi/lib/thumb/v7-m\libg_nano.a(lib_a-nano-mallocr.o)
                0x200018cc                __malloc_sbrk_start
 *(COMMON)
 COMMON         0x200018d0        0xc ./code/app_init.o
                0x200018d0                app_env
 COMMON         0x200018dc        0x1 ./code/app_process.o
                0x200018dc                appm_state
 *fill*         0x200018dd        0x3 
 COMMON         0x200018e0        0x2 ./code/ble_bass.o
                0x200018e0                bass_support_env
 *fill*         0x200018e2        0x2 
 COMMON         0x200018e4      0x1fe ./code/ble_custom.o
                0x200018e4                cs_env
 *fill*         0x20001ae2        0x2 
 COMMON         0x20001ae4        0x1 ./code/ble_diss.o
                0x20001ae4                diss_support_env
 *fill*         0x20001ae5        0x3 
 COMMON         0x20001ae8       0x1a ./code/ble_std.o
                0x20001ae8                bdaddr
                0x20001aee                bdaddr_type
                0x20001af0                ble_env
 *fill*         0x20001b02        0x2 
 COMMON         0x20001b04        0x8 ./code/uart.o
                0x20001b04                gNextData
                0x20001b08                gUARTTXData
 COMMON         0x20001b0c       0x34 C:/Users/h274519/ON_Semiconductor/ONSemiconductor/RSL10/3.0.534/lib/ble_core/Release/libblelib.a(rwip.o)
                0x20001b0c                rwip_rf
 COMMON         0x20001b40      0x390 C:/Users/h274519/ON_Semiconductor/ONSemiconductor/RSL10/3.0.534/lib/ble_core/Release/libblelib.a(prf-prf_utils.o)
                0x20001b40                prf_env
 COMMON         0x20001ed0       0x38 C:/Users/h274519/ON_Semiconductor/ONSemiconductor/RSL10/3.0.534/lib/ble_core/Release/libblelib.a(lld_evt.o)
                0x20001ed0                ble_instChange_rxWinSize_include
                0x20001ed4                lld_evt_env
                0x20001f04                ble_max_rx_window_size
 COMMON         0x20001f08        0x2 C:/Users/h274519/ON_Semiconductor/ONSemiconductor/RSL10/3.0.534/lib/ble_core/Release/libblelib.a(lld_sleep.o)
                0x20001f08                lld_sleep_params
 COMMON         0x20001f0a       0x10 C:/Users/h274519/ON_Semiconductor/ONSemiconductor/RSL10/3.0.534/lib/ble_core/Release/libblelib.a(hci.o)
                0x20001f0a                hci_env
 COMMON         0x20001f1a        0xa C:/Users/h274519/ON_Semiconductor/ONSemiconductor/RSL10/3.0.534/lib/ble_core/Release/libblelib.a(hci_fc.o)
                0x20001f1a                hci_fc_env
 COMMON         0x20001f24       0xcc C:/Users/h274519/ON_Semiconductor/ONSemiconductor/RSL10/3.0.534/lib/ble_core/Release/libblelib.a(llm.o)
                0x20001f24                llm_le_env
 COMMON         0x20001ff0        0x1 C:/Users/h274519/ON_Semiconductor/ONSemiconductor/RSL10/3.0.534/lib/ble_core/Release/libblelib.a(llm_task.o)
                0x20001ff0                llm_state
 *fill*         0x20001ff1        0x3 
 COMMON         0x20001ff4       0x31 C:/Users/h274519/ON_Semiconductor/ONSemiconductor/RSL10/3.0.534/lib/ble_core/Release/libblelib.a(lld_pdu.o)
                0x20001ff4                stat_cnt_enable
                0x20001ff8                stat_cnt_value
                0x20002024                stat_cnt_conidx
 *fill*         0x20002025        0x3 
 COMMON         0x20002028       0x20 C:/Users/h274519/ON_Semiconductor/ONSemiconductor/RSL10/3.0.534/lib/ble_core/Release/libblelib.a(llc.o)
                0x20002028                llc_env
 COMMON         0x20002048        0x8 C:/Users/h274519/ON_Semiconductor/ONSemiconductor/RSL10/3.0.534/lib/ble_core/Release/libblelib.a(llc_task.o)
                0x20002048                llc_state
 COMMON         0x20002050      0x49c C:/Users/h274519/ON_Semiconductor/ONSemiconductor/RSL10/3.0.534/lib/ble_core/Release/libblelib.a(em_buf.o)
                0x20002050                em_buf_env
 COMMON         0x200024ec        0xc C:/Users/h274519/ON_Semiconductor/ONSemiconductor/RSL10/3.0.534/lib/ble_core/Release/libblelib.a(l2cm.o)
                0x200024ec                l2cm_env
 COMMON         0x200024f8       0x20 C:/Users/h274519/ON_Semiconductor/ONSemiconductor/RSL10/3.0.534/lib/ble_core/Release/libblelib.a(l2cc.o)
                0x200024f8                l2cc_env
 COMMON         0x20002518        0x8 C:/Users/h274519/ON_Semiconductor/ONSemiconductor/RSL10/3.0.534/lib/ble_core/Release/libblelib.a(l2cc_task.o)
                0x20002518                l2cc_state
 COMMON         0x20002520       0x20 C:/Users/h274519/ON_Semiconductor/ONSemiconductor/RSL10/3.0.534/lib/ble_core/Release/libblelib.a(gattm.o)
                0x20002520                gattm_env
 COMMON         0x20002540        0x1 C:/Users/h274519/ON_Semiconductor/ONSemiconductor/RSL10/3.0.534/lib/ble_core/Release/libblelib.a(gattm_task.o)
                0x20002540                gattm_state
 *fill*         0x20002541        0x3 
 COMMON         0x20002544       0x20 C:/Users/h274519/ON_Semiconductor/ONSemiconductor/RSL10/3.0.534/lib/ble_core/Release/libblelib.a(gattc.o)
                0x20002544                gattc_env
 COMMON         0x20002564        0x8 C:/Users/h274519/ON_Semiconductor/ONSemiconductor/RSL10/3.0.534/lib/ble_core/Release/libblelib.a(gattc_task.o)
                0x20002564                gattc_state
 COMMON         0x2000256c       0x88 C:/Users/h274519/ON_Semiconductor/ONSemiconductor/RSL10/3.0.534/lib/ble_core/Release/libblelib.a(gapm.o)
                0x2000256c                gapm_env
 COMMON         0x200025f4        0x1 C:/Users/h274519/ON_Semiconductor/ONSemiconductor/RSL10/3.0.534/lib/ble_core/Release/libblelib.a(gapm_task.o)
                0x200025f4                gapm_state
 COMMON         0x200025f5        0x1 C:/Users/h274519/ON_Semiconductor/ONSemiconductor/RSL10/3.0.534/lib/ble_core/Release/libblelib.a(gapm_util.o)
                0x200025f5                ble_adv_flags_exclude
 *fill*         0x200025f6        0x2 
 COMMON         0x200025f8       0x20 C:/Users/h274519/ON_Semiconductor/ONSemiconductor/RSL10/3.0.534/lib/ble_core/Release/libblelib.a(gapc.o)
                0x200025f8                gapc_env
 COMMON         0x20002618        0x8 C:/Users/h274519/ON_Semiconductor/ONSemiconductor/RSL10/3.0.534/lib/ble_core/Release/libblelib.a(gapc_task.o)
                0x20002618                gapc_state
 COMMON         0x20002620        0x8 C:/Users/h274519/ON_Semiconductor/ONSemiconductor/RSL10/3.0.534/lib/ble_core/Release/libblelib.a(ecc_p256.o)
                0x20002620                ecc_env
 COMMON         0x20002628       0x30 C:/Users/h274519/ON_Semiconductor/ONSemiconductor/RSL10/3.0.534/lib/ble_core/Release/libkelib.a(ke.o)
                0x20002628                ke_env
 COMMON         0x20002658     0x2840 C:/Users/h274519/ON_Semiconductor/ONSemiconductor/RSL10/3.0.534/lib/ble_core/Release/libkelib.a(rwip2.o)
                0x20002658                rwip_heap_msg
                0x20003664                rwip_env
                0x20003674                rwip_heap_env
                0x20004680                rwip_heap_db
                0x20004e8c                rwip_heap_non_ret
 COMMON         0x20004e98        0x4 c:/program files (x86)/on semiconductor/ide/arm_tools/bin/../lib/gcc/arm-none-eabi/6.3.1/../../../../arm-none-eabi/lib/thumb/v7-m\libg_nano.a(lib_a-reent.o)
                0x20004e98                errno
 *(.bss_end .bss_end.*)
                0x20004e9c                . = ALIGN (0x4)
                0x20004e9c                __bss_end__ = .

.noinit         0x20004e9c        0x0
                0x20004e9c                . = ALIGN (0x4)
                0x20004e9c                __noinit_start__ = .
 *(.noinit .noinit.*)
                0x20004e9c                . = ALIGN (0x4)
                0x20004e9c                __noinit_end__ = .
OUTPUT(peripheral_server_uart.elf elf32-littlearm)

.debug_info     0x00000000    0x2436b
 .debug_info    0x00000000     0x4dea ./code/app_init.o
 .debug_info    0x00004dea     0x4765 ./code/app_process.o
 .debug_info    0x0000954f     0x4ddd ./code/ble_bass.o
 .debug_info    0x0000e32c     0x4802 ./code/ble_custom.o
 .debug_info    0x00012b2e     0x438c ./code/ble_diss.o
 .debug_info    0x00016eba     0x56d8 ./code/ble_std.o
 .debug_info    0x0001c592     0x48b4 ./code/uart.o
 .debug_info    0x00020e46      0x478 ./RTE/Device/stubprf.o
 .debug_info    0x000212be     0x30ad ./app.o

.debug_abbrev   0x00000000     0x18f3
 .debug_abbrev  0x00000000      0x351 ./code/app_init.o
 .debug_abbrev  0x00000351      0x2c8 ./code/app_process.o
 .debug_abbrev  0x00000619      0x2ae ./code/ble_bass.o
 .debug_abbrev  0x000008c7      0x32d ./code/ble_custom.o
 .debug_abbrev  0x00000bf4      0x2ae ./code/ble_diss.o
 .debug_abbrev  0x00000ea2      0x3b4 ./code/ble_std.o
 .debug_abbrev  0x00001256      0x3f5 ./code/uart.o
 .debug_abbrev  0x0000164b       0x5f ./RTE/Device/stubprf.o
 .debug_abbrev  0x000016aa      0x249 ./app.o

.debug_aranges  0x00000000      0x468
 .debug_aranges
                0x00000000       0x58 ./code/app_init.o
 .debug_aranges
                0x00000058       0x48 ./code/app_process.o
 .debug_aranges
                0x000000a0       0x48 ./code/ble_bass.o
 .debug_aranges
                0x000000e8       0x50 ./code/ble_custom.o
 .debug_aranges
                0x00000138       0x30 ./code/ble_diss.o
 .debug_aranges
                0x00000168       0xa8 ./code/ble_std.o
 .debug_aranges
                0x00000210       0x80 ./code/uart.o
 .debug_aranges
                0x00000290      0x1b0 ./RTE/Device/stubprf.o
 .debug_aranges
                0x00000440       0x28 ./app.o

.debug_ranges   0x00000000      0x3d8
 .debug_ranges  0x00000000       0x48 ./code/app_init.o
 .debug_ranges  0x00000048       0x38 ./code/app_process.o
 .debug_ranges  0x00000080       0x38 ./code/ble_bass.o
 .debug_ranges  0x000000b8       0x40 ./code/ble_custom.o
 .debug_ranges  0x000000f8       0x20 ./code/ble_diss.o
 .debug_ranges  0x00000118       0x98 ./code/ble_std.o
 .debug_ranges  0x000001b0       0x70 ./code/uart.o
 .debug_ranges  0x00000220      0x1a0 ./RTE/Device/stubprf.o
 .debug_ranges  0x000003c0       0x18 ./app.o

.debug_line     0x00000000     0x46a6
 .debug_line    0x00000000      0x8a7 ./code/app_init.o
 .debug_line    0x000008a7      0x851 ./code/app_process.o
 .debug_line    0x000010f8      0x7f3 ./code/ble_bass.o
 .debug_line    0x000018eb      0x87c ./code/ble_custom.o
 .debug_line    0x00002167      0x7c4 ./code/ble_diss.o
 .debug_line    0x0000292b      0x9b1 ./code/ble_std.o
 .debug_line    0x000032dc      0x999 ./code/uart.o
 .debug_line    0x00003c75      0x42c ./RTE/Device/stubprf.o
 .debug_line    0x000040a1      0x605 ./app.o

.debug_str      0x00000000     0xa4f0
 .debug_str     0x00000000     0x501d ./code/app_init.o
                               0x5506 (size before relaxing)
 .debug_str     0x0000501d      0xf5e ./code/app_process.o
                               0x5bd3 (size before relaxing)
 .debug_str     0x00005f7b     0x23a0 ./code/ble_bass.o
                               0x73d1 (size before relaxing)
 .debug_str     0x0000831b      0x758 ./code/ble_custom.o
                               0x58b0 (size before relaxing)
 .debug_str     0x00008a73      0x25e ./code/ble_diss.o
                               0x577e (size before relaxing)
 .debug_str     0x00008cd1     0x1138 ./code/ble_std.o
                               0x6ef9 (size before relaxing)
 .debug_str     0x00009e09      0x2d9 ./code/uart.o
                               0x5481 (size before relaxing)
 .debug_str     0x0000a0e2      0x3dd ./RTE/Device/stubprf.o
                                0x4b7 (size before relaxing)
 .debug_str     0x0000a4bf       0x31 ./app.o
                               0x2207 (size before relaxing)

.comment        0x00000000       0x7f
 .comment       0x00000000       0x7f ./code/app_init.o
                                 0x80 (size before relaxing)
 .comment       0x0000007f       0x80 ./code/app_process.o
 .comment       0x0000007f       0x80 ./code/ble_bass.o
 .comment       0x0000007f       0x80 ./code/ble_custom.o
 .comment       0x0000007f       0x80 ./code/ble_diss.o
 .comment       0x0000007f       0x80 ./code/ble_std.o
 .comment       0x0000007f       0x80 ./code/uart.o
 .comment       0x0000007f       0x80 ./RTE/Device/stubprf.o
 .comment       0x0000007f       0x80 ./app.o
 .comment       0x0000007f       0x80 C:/Users/h274519/ON_Semiconductor/ONSemiconductor/RSL10/3.0.534/lib/ble_core/Release/libblelib.a(rwip.o)
 .comment       0x0000007f       0x80 C:/Users/h274519/ON_Semiconductor/ONSemiconductor/RSL10/3.0.534/lib/ble_core/Release/libblelib.a(rwble.o)
 .comment       0x0000007f       0x80 C:/Users/h274519/ON_Semiconductor/ONSemiconductor/RSL10/3.0.534/lib/ble_core/Release/libblelib.a(rf_atlas.o)
 .comment       0x0000007f       0x80 C:/Users/h274519/ON_Semiconductor/ONSemiconductor/RSL10/3.0.534/lib/ble_core/Release/libblelib.a(prf-prf_utils.o)
 .comment       0x0000007f       0x80 C:/Users/h274519/ON_Semiconductor/ONSemiconductor/RSL10/3.0.534/lib/ble_core/Release/libblelib.a(lld_evt.o)
 .comment       0x0000007f       0x80 C:/Users/h274519/ON_Semiconductor/ONSemiconductor/RSL10/3.0.534/lib/ble_core/Release/libblelib.a(lld_sleep.o)
 .comment       0x0000007f       0x80 C:/Users/h274519/ON_Semiconductor/ONSemiconductor/RSL10/3.0.534/lib/ble_core/Release/libblelib.a(hci.o)
 .comment       0x0000007f       0x80 C:/Users/h274519/ON_Semiconductor/ONSemiconductor/RSL10/3.0.534/lib/ble_core/Release/libblelib.a(hci_fc.o)
 .comment       0x0000007f       0x80 C:/Users/h274519/ON_Semiconductor/ONSemiconductor/RSL10/3.0.534/lib/ble_core/Release/libblelib.a(hci_msg.o)
 .comment       0x0000007f       0x80 C:/Users/h274519/ON_Semiconductor/ONSemiconductor/RSL10/3.0.534/lib/ble_core/Release/libblelib.a(llm.o)
 .comment       0x0000007f       0x80 C:/Users/h274519/ON_Semiconductor/ONSemiconductor/RSL10/3.0.534/lib/ble_core/Release/libblelib.a(llm_task.o)
 .comment       0x0000007f       0x80 C:/Users/h274519/ON_Semiconductor/ONSemiconductor/RSL10/3.0.534/lib/ble_core/Release/libblelib.a(llm_util.o)
 .comment       0x0000007f       0x80 C:/Users/h274519/ON_Semiconductor/ONSemiconductor/RSL10/3.0.534/lib/ble_core/Release/libblelib.a(lld.o)
 .comment       0x0000007f       0x80 C:/Users/h274519/ON_Semiconductor/ONSemiconductor/RSL10/3.0.534/lib/ble_core/Release/libblelib.a(lld_pdu.o)
 .comment       0x0000007f       0x80 C:/Users/h274519/ON_Semiconductor/ONSemiconductor/RSL10/3.0.534/lib/ble_core/Release/libblelib.a(lld_util.o)
 .comment       0x0000007f       0x80 C:/Users/h274519/ON_Semiconductor/ONSemiconductor/RSL10/3.0.534/lib/ble_core/Release/libblelib.a(lld_wlcoex.o)
 .comment       0x0000007f       0x80 C:/Users/h274519/ON_Semiconductor/ONSemiconductor/RSL10/3.0.534/lib/ble_core/Release/libblelib.a(llc.o)
 .comment       0x0000007f       0x80 C:/Users/h274519/ON_Semiconductor/ONSemiconductor/RSL10/3.0.534/lib/ble_core/Release/libblelib.a(llc_llcp.o)
 .comment       0x0000007f       0x80 C:/Users/h274519/ON_Semiconductor/ONSemiconductor/RSL10/3.0.534/lib/ble_core/Release/libblelib.a(llc_task.o)
 .comment       0x0000007f       0x80 C:/Users/h274519/ON_Semiconductor/ONSemiconductor/RSL10/3.0.534/lib/ble_core/Release/libblelib.a(llc_util.o)
 .comment       0x0000007f       0x80 C:/Users/h274519/ON_Semiconductor/ONSemiconductor/RSL10/3.0.534/lib/ble_core/Release/libblelib.a(em_buf.o)
 .comment       0x0000007f       0x80 C:/Users/h274519/ON_Semiconductor/ONSemiconductor/RSL10/3.0.534/lib/ble_core/Release/libblelib.a(rwble_hl.o)
 .comment       0x0000007f       0x80 C:/Users/h274519/ON_Semiconductor/ONSemiconductor/RSL10/3.0.534/lib/ble_core/Release/libblelib.a(l2cm.o)
 .comment       0x0000007f       0x80 C:/Users/h274519/ON_Semiconductor/ONSemiconductor/RSL10/3.0.534/lib/ble_core/Release/libblelib.a(l2cc.o)
 .comment       0x0000007f       0x80 C:/Users/h274519/ON_Semiconductor/ONSemiconductor/RSL10/3.0.534/lib/ble_core/Release/libblelib.a(l2cc_lecb.o)
 .comment       0x0000007f       0x80 C:/Users/h274519/ON_Semiconductor/ONSemiconductor/RSL10/3.0.534/lib/ble_core/Release/libblelib.a(l2cc_pdu.o)
 .comment       0x0000007f       0x80 C:/Users/h274519/ON_Semiconductor/ONSemiconductor/RSL10/3.0.534/lib/ble_core/Release/libblelib.a(l2cc_task.o)
 .comment       0x0000007f       0x80 C:/Users/h274519/ON_Semiconductor/ONSemiconductor/RSL10/3.0.534/lib/ble_core/Release/libblelib.a(gattm.o)
 .comment       0x0000007f       0x80 C:/Users/h274519/ON_Semiconductor/ONSemiconductor/RSL10/3.0.534/lib/ble_core/Release/libblelib.a(gattm_task.o)
 .comment       0x0000007f       0x80 C:/Users/h274519/ON_Semiconductor/ONSemiconductor/RSL10/3.0.534/lib/ble_core/Release/libblelib.a(gattc.o)
 .comment       0x0000007f       0x80 C:/Users/h274519/ON_Semiconductor/ONSemiconductor/RSL10/3.0.534/lib/ble_core/Release/libblelib.a(gattc_task.o)
 .comment       0x0000007f       0x80 C:/Users/h274519/ON_Semiconductor/ONSemiconductor/RSL10/3.0.534/lib/ble_core/Release/libblelib.a(atts.o)
 .comment       0x0000007f       0x80 C:/Users/h274519/ON_Semiconductor/ONSemiconductor/RSL10/3.0.534/lib/ble_core/Release/libblelib.a(attm.o)
 .comment       0x0000007f       0x80 C:/Users/h274519/ON_Semiconductor/ONSemiconductor/RSL10/3.0.534/lib/ble_core/Release/libblelib.a(attm_db.o)
 .comment       0x0000007f       0x80 C:/Users/h274519/ON_Semiconductor/ONSemiconductor/RSL10/3.0.534/lib/ble_core/Release/libblelib.a(attc.o)
 .comment       0x0000007f       0x80 C:/Users/h274519/ON_Semiconductor/ONSemiconductor/RSL10/3.0.534/lib/ble_core/Release/libblelib.a(gapm.o)
 .comment       0x0000007f       0x80 C:/Users/h274519/ON_Semiconductor/ONSemiconductor/RSL10/3.0.534/lib/ble_core/Release/libblelib.a(gapm_task.o)
 .comment       0x0000007f       0x80 C:/Users/h274519/ON_Semiconductor/ONSemiconductor/RSL10/3.0.534/lib/ble_core/Release/libblelib.a(gapm_util.o)
 .comment       0x0000007f       0x80 C:/Users/h274519/ON_Semiconductor/ONSemiconductor/RSL10/3.0.534/lib/ble_core/Release/libblelib.a(gapc.o)
 .comment       0x0000007f       0x80 C:/Users/h274519/ON_Semiconductor/ONSemiconductor/RSL10/3.0.534/lib/ble_core/Release/libblelib.a(gapc_task.o)
 .comment       0x0000007f       0x80 C:/Users/h274519/ON_Semiconductor/ONSemiconductor/RSL10/3.0.534/lib/ble_core/Release/libblelib.a(ecc_p256.o)
 .comment       0x0000007f       0x80 C:/Users/h274519/ON_Semiconductor/ONSemiconductor/RSL10/3.0.534/lib/ble_core/Release/libblelib.a(ea.o)
 .comment       0x0000007f       0x80 C:/Users/h274519/ON_Semiconductor/ONSemiconductor/RSL10/3.0.534/lib/ble_core/Release/libblelib.a(llm_hci.o)
 .comment       0x0000007f       0x80 C:/Users/h274519/ON_Semiconductor/ONSemiconductor/RSL10/3.0.534/lib/ble_core/Release/libblelib.a(llc_ch_asses.o)
 .comment       0x0000007f       0x80 C:/Users/h274519/ON_Semiconductor/ONSemiconductor/RSL10/3.0.534/lib/ble_core/Release/libblelib.a(llc_hci.o)
 .comment       0x0000007f       0x80 C:/Users/h274519/ON_Semiconductor/ONSemiconductor/RSL10/3.0.534/lib/ble_core/Release/libblelib.a(l2cc_sig.o)
 .comment       0x0000007f       0x80 C:/Users/h274519/ON_Semiconductor/ONSemiconductor/RSL10/3.0.534/lib/ble_core/Release/libblelib.a(smpm_api.o)
 .comment       0x0000007f       0x80 C:/Users/h274519/ON_Semiconductor/ONSemiconductor/RSL10/3.0.534/lib/ble_core/Release/libblelib.a(smpc.o)
 .comment       0x0000007f       0x80 C:/Users/h274519/ON_Semiconductor/ONSemiconductor/RSL10/3.0.534/lib/ble_core/Release/libblelib.a(smpc_api.o)
 .comment       0x0000007f       0x80 C:/Users/h274519/ON_Semiconductor/ONSemiconductor/RSL10/3.0.534/lib/ble_core/Release/libblelib.a(smpc_crypto.o)
 .comment       0x0000007f       0x80 C:/Users/h274519/ON_Semiconductor/ONSemiconductor/RSL10/3.0.534/lib/ble_core/Release/libblelib.a(smpc_util.o)
 .comment       0x0000007f       0x80 C:/Users/h274519/ON_Semiconductor/ONSemiconductor/RSL10/3.0.534/lib/ble_core/Release/libblelib.a(gapm_hci.o)
 .comment       0x0000007f       0x80 C:/Users/h274519/ON_Semiconductor/ONSemiconductor/RSL10/3.0.534/lib/ble_core/Release/libblelib.a(gapc_hci.o)
 .comment       0x0000007f       0x80 C:/Users/h274519/ON_Semiconductor/ONSemiconductor/RSL10/3.0.534/lib/ble_core/Release/libblelib.a(gapc_sig.o)
 .comment       0x0000007f       0x80 C:/Users/h274519/ON_Semiconductor/ONSemiconductor/RSL10/3.0.534/lib/ble_core/Release/libkelib.a(ke.o)
 .comment       0x0000007f       0x80 C:/Users/h274519/ON_Semiconductor/ONSemiconductor/RSL10/3.0.534/lib/ble_core/Release/libkelib.a(ke_event.o)
 .comment       0x0000007f       0x80 C:/Users/h274519/ON_Semiconductor/ONSemiconductor/RSL10/3.0.534/lib/ble_core/Release/libkelib.a(ke_mem.o)
 .comment       0x0000007f       0x80 C:/Users/h274519/ON_Semiconductor/ONSemiconductor/RSL10/3.0.534/lib/ble_core/Release/libkelib.a(ke_msg.o)
 .comment       0x0000007f       0x80 C:/Users/h274519/ON_Semiconductor/ONSemiconductor/RSL10/3.0.534/lib/ble_core/Release/libkelib.a(ke_task.o)
 .comment       0x0000007f       0x80 C:/Users/h274519/ON_Semiconductor/ONSemiconductor/RSL10/3.0.534/lib/ble_core/Release/libkelib.a(ke_timer.o)
 .comment       0x0000007f       0x80 C:/Users/h274519/ON_Semiconductor/ONSemiconductor/RSL10/3.0.534/lib/ble_core/Release/libkelib.a(rst_grosstime.o)
 .comment       0x0000007f       0x80 C:/Users/h274519/ON_Semiconductor/ONSemiconductor/RSL10/3.0.534/lib/ble_core/Release/libkelib.a(rwip2.o)
 .comment       0x0000007f       0x80 C:/Users/h274519/ON_Semiconductor/ONSemiconductor/RSL10/3.0.534/lib/ble_core/Release/libkelib.a(co_list.o)
 .comment       0x0000007f       0x80 C:/Users/h274519/ON_Semiconductor/ONSemiconductor/RSL10/3.0.534/lib/ble_core/Release/libkelib.a(co_utils.o)
 .comment       0x0000007f       0x80 C:/Users/h274519/ON_Semiconductor/ONSemiconductor/RSL10/3.0.534/lib/ble_core/Release/libkelib.a(ke_queue.o)
 .comment       0x0000007f       0x80 C:/Users/h274519/ON_Semiconductor/ONSemiconductor/RSL10/3.0.534/lib/ble_profiles/Release/libbass.a(bass.o)
 .comment       0x0000007f       0x80 C:/Users/h274519/ON_Semiconductor/ONSemiconductor/RSL10/3.0.534/lib/ble_profiles/Release/libbass.a(bass_task.o)
 .comment       0x0000007f       0x80 C:/Users/h274519/ON_Semiconductor/ONSemiconductor/RSL10/3.0.534/lib/Release/libsyslib.a(rsl10_protocol.o)
 .comment       0x0000007f       0x80 C:/Users/h274519/ON_Semiconductor/ONSemiconductor/RSL10/3.0.534/lib/Release/libsyslib.a(rsl10_sys_dma.o)
 .comment       0x0000007f       0x80 C:/Users/h274519/ON_Semiconductor/ONSemiconductor/RSL10/3.0.534/lib/Release/libsyslib.a(rsl10_sys_rffe.o)
 .comment       0x0000007f       0x80 C:/Users/h274519/ON_Semiconductor/ONSemiconductor/RSL10/3.0.534/lib/Release/libsyslib.a(rsl10_sys_uart.o)
 .comment       0x0000007f       0x80 C:/Users/h274519/ON_Semiconductor/ONSemiconductor/RSL10/3.0.534/lib/Release/libsyslib.a(rsl10_sys_power.o)
 .comment       0x0000007f       0x80 C:/Users/h274519/ON_Semiconductor/ONSemiconductor/RSL10/3.0.534/lib/Release/libcmsis.a(start.o)
 .comment       0x0000007f       0x80 C:/Users/h274519/ON_Semiconductor/ONSemiconductor/RSL10/3.0.534/lib/Release/libcmsis.a(system_rsl10.o)
 .comment       0x0000007f       0x80 C:/Users/h274519/ON_Semiconductor/ONSemiconductor/RSL10/3.0.534/lib/Release/libcmsis.a(sbrk.o)
 .comment       0x0000007f       0x80 C:\Users\h274519\ON_Semiconductor\ONSemiconductor\RSL10\3.0.534\lib\ble_profiles\Release\libDISS.a(diss.o)
 .comment       0x0000007f       0x80 C:\Users\h274519\ON_Semiconductor\ONSemiconductor\RSL10\3.0.534\lib\ble_profiles\Release\libDISS.a(diss_task.o)

.ARM.attributes
                0x00000000       0x31
 .ARM.attributes
                0x00000000       0x33 ./code/app_init.o
 .ARM.attributes
                0x00000033       0x33 ./code/app_process.o
 .ARM.attributes
                0x00000066       0x33 ./code/ble_bass.o
 .ARM.attributes
                0x00000099       0x33 ./code/ble_custom.o
 .ARM.attributes
                0x000000cc       0x33 ./code/ble_diss.o
 .ARM.attributes
                0x000000ff       0x33 ./code/ble_std.o
 .ARM.attributes
                0x00000132       0x33 ./code/uart.o
 .ARM.attributes
                0x00000165       0x33 ./RTE/Device/stubprf.o
 .ARM.attributes
                0x00000198       0x33 ./app.o
 .ARM.attributes
                0x000001cb       0x33 C:/Users/h274519/ON_Semiconductor/ONSemiconductor/RSL10/3.0.534/lib/ble_core/Release/libblelib.a(rwip.o)
 .ARM.attributes
                0x000001fe       0x33 C:/Users/h274519/ON_Semiconductor/ONSemiconductor/RSL10/3.0.534/lib/ble_core/Release/libblelib.a(rwble.o)
 .ARM.attributes
                0x00000231       0x33 C:/Users/h274519/ON_Semiconductor/ONSemiconductor/RSL10/3.0.534/lib/ble_core/Release/libblelib.a(rf_atlas.o)
 .ARM.attributes
                0x00000264       0x33 C:/Users/h274519/ON_Semiconductor/ONSemiconductor/RSL10/3.0.534/lib/ble_core/Release/libblelib.a(prf-prf_utils.o)
 .ARM.attributes
                0x00000297       0x33 C:/Users/h274519/ON_Semiconductor/ONSemiconductor/RSL10/3.0.534/lib/ble_core/Release/libblelib.a(lld_evt.o)
 .ARM.attributes
                0x000002ca       0x33 C:/Users/h274519/ON_Semiconductor/ONSemiconductor/RSL10/3.0.534/lib/ble_core/Release/libblelib.a(lld_sleep.o)
 .ARM.attributes
                0x000002fd       0x33 C:/Users/h274519/ON_Semiconductor/ONSemiconductor/RSL10/3.0.534/lib/ble_core/Release/libblelib.a(hci.o)
 .ARM.attributes
                0x00000330       0x33 C:/Users/h274519/ON_Semiconductor/ONSemiconductor/RSL10/3.0.534/lib/ble_core/Release/libblelib.a(hci_fc.o)
 .ARM.attributes
                0x00000363       0x33 C:/Users/h274519/ON_Semiconductor/ONSemiconductor/RSL10/3.0.534/lib/ble_core/Release/libblelib.a(hci_msg.o)
 .ARM.attributes
                0x00000396       0x33 C:/Users/h274519/ON_Semiconductor/ONSemiconductor/RSL10/3.0.534/lib/ble_core/Release/libblelib.a(llm.o)
 .ARM.attributes
                0x000003c9       0x33 C:/Users/h274519/ON_Semiconductor/ONSemiconductor/RSL10/3.0.534/lib/ble_core/Release/libblelib.a(llm_task.o)
 .ARM.attributes
                0x000003fc       0x33 C:/Users/h274519/ON_Semiconductor/ONSemiconductor/RSL10/3.0.534/lib/ble_core/Release/libblelib.a(llm_util.o)
 .ARM.attributes
                0x0000042f       0x33 C:/Users/h274519/ON_Semiconductor/ONSemiconductor/RSL10/3.0.534/lib/ble_core/Release/libblelib.a(lld.o)
 .ARM.attributes
                0x00000462       0x33 C:/Users/h274519/ON_Semiconductor/ONSemiconductor/RSL10/3.0.534/lib/ble_core/Release/libblelib.a(lld_pdu.o)
 .ARM.attributes
                0x00000495       0x33 C:/Users/h274519/ON_Semiconductor/ONSemiconductor/RSL10/3.0.534/lib/ble_core/Release/libblelib.a(lld_util.o)
 .ARM.attributes
                0x000004c8       0x33 C:/Users/h274519/ON_Semiconductor/ONSemiconductor/RSL10/3.0.534/lib/ble_core/Release/libblelib.a(lld_wlcoex.o)
 .ARM.attributes
                0x000004fb       0x33 C:/Users/h274519/ON_Semiconductor/ONSemiconductor/RSL10/3.0.534/lib/ble_core/Release/libblelib.a(llc.o)
 .ARM.attributes
                0x0000052e       0x33 C:/Users/h274519/ON_Semiconductor/ONSemiconductor/RSL10/3.0.534/lib/ble_core/Release/libblelib.a(llc_llcp.o)
 .ARM.attributes
                0x00000561       0x33 C:/Users/h274519/ON_Semiconductor/ONSemiconductor/RSL10/3.0.534/lib/ble_core/Release/libblelib.a(llc_task.o)
 .ARM.attributes
                0x00000594       0x33 C:/Users/h274519/ON_Semiconductor/ONSemiconductor/RSL10/3.0.534/lib/ble_core/Release/libblelib.a(llc_util.o)
 .ARM.attributes
                0x000005c7       0x33 C:/Users/h274519/ON_Semiconductor/ONSemiconductor/RSL10/3.0.534/lib/ble_core/Release/libblelib.a(em_buf.o)
 .ARM.attributes
                0x000005fa       0x33 C:/Users/h274519/ON_Semiconductor/ONSemiconductor/RSL10/3.0.534/lib/ble_core/Release/libblelib.a(rwble_hl.o)
 .ARM.attributes
                0x0000062d       0x33 C:/Users/h274519/ON_Semiconductor/ONSemiconductor/RSL10/3.0.534/lib/ble_core/Release/libblelib.a(l2cm.o)
 .ARM.attributes
                0x00000660       0x33 C:/Users/h274519/ON_Semiconductor/ONSemiconductor/RSL10/3.0.534/lib/ble_core/Release/libblelib.a(l2cc.o)
 .ARM.attributes
                0x00000693       0x33 C:/Users/h274519/ON_Semiconductor/ONSemiconductor/RSL10/3.0.534/lib/ble_core/Release/libblelib.a(l2cc_lecb.o)
 .ARM.attributes
                0x000006c6       0x33 C:/Users/h274519/ON_Semiconductor/ONSemiconductor/RSL10/3.0.534/lib/ble_core/Release/libblelib.a(l2cc_pdu.o)
 .ARM.attributes
                0x000006f9       0x33 C:/Users/h274519/ON_Semiconductor/ONSemiconductor/RSL10/3.0.534/lib/ble_core/Release/libblelib.a(l2cc_task.o)
 .ARM.attributes
                0x0000072c       0x33 C:/Users/h274519/ON_Semiconductor/ONSemiconductor/RSL10/3.0.534/lib/ble_core/Release/libblelib.a(gattm.o)
 .ARM.attributes
                0x0000075f       0x33 C:/Users/h274519/ON_Semiconductor/ONSemiconductor/RSL10/3.0.534/lib/ble_core/Release/libblelib.a(gattm_task.o)
 .ARM.attributes
                0x00000792       0x33 C:/Users/h274519/ON_Semiconductor/ONSemiconductor/RSL10/3.0.534/lib/ble_core/Release/libblelib.a(gattc.o)
 .ARM.attributes
                0x000007c5       0x33 C:/Users/h274519/ON_Semiconductor/ONSemiconductor/RSL10/3.0.534/lib/ble_core/Release/libblelib.a(gattc_task.o)
 .ARM.attributes
                0x000007f8       0x33 C:/Users/h274519/ON_Semiconductor/ONSemiconductor/RSL10/3.0.534/lib/ble_core/Release/libblelib.a(atts.o)
 .ARM.attributes
                0x0000082b       0x33 C:/Users/h274519/ON_Semiconductor/ONSemiconductor/RSL10/3.0.534/lib/ble_core/Release/libblelib.a(attm.o)
 .ARM.attributes
                0x0000085e       0x33 C:/Users/h274519/ON_Semiconductor/ONSemiconductor/RSL10/3.0.534/lib/ble_core/Release/libblelib.a(attm_db.o)
 .ARM.attributes
                0x00000891       0x33 C:/Users/h274519/ON_Semiconductor/ONSemiconductor/RSL10/3.0.534/lib/ble_core/Release/libblelib.a(attc.o)
 .ARM.attributes
                0x000008c4       0x33 C:/Users/h274519/ON_Semiconductor/ONSemiconductor/RSL10/3.0.534/lib/ble_core/Release/libblelib.a(gapm.o)
 .ARM.attributes
                0x000008f7       0x33 C:/Users/h274519/ON_Semiconductor/ONSemiconductor/RSL10/3.0.534/lib/ble_core/Release/libblelib.a(gapm_task.o)
 .ARM.attributes
                0x0000092a       0x33 C:/Users/h274519/ON_Semiconductor/ONSemiconductor/RSL10/3.0.534/lib/ble_core/Release/libblelib.a(gapm_util.o)
 .ARM.attributes
                0x0000095d       0x33 C:/Users/h274519/ON_Semiconductor/ONSemiconductor/RSL10/3.0.534/lib/ble_core/Release/libblelib.a(gapc.o)
 .ARM.attributes
                0x00000990       0x33 C:/Users/h274519/ON_Semiconductor/ONSemiconductor/RSL10/3.0.534/lib/ble_core/Release/libblelib.a(gapc_task.o)
 .ARM.attributes
                0x000009c3       0x33 C:/Users/h274519/ON_Semiconductor/ONSemiconductor/RSL10/3.0.534/lib/ble_core/Release/libblelib.a(ecc_p256.o)
 .ARM.attributes
                0x000009f6       0x33 C:/Users/h274519/ON_Semiconductor/ONSemiconductor/RSL10/3.0.534/lib/ble_core/Release/libblelib.a(ea.o)
 .ARM.attributes
                0x00000a29       0x33 C:/Users/h274519/ON_Semiconductor/ONSemiconductor/RSL10/3.0.534/lib/ble_core/Release/libblelib.a(llm_hci.o)
 .ARM.attributes
                0x00000a5c       0x33 C:/Users/h274519/ON_Semiconductor/ONSemiconductor/RSL10/3.0.534/lib/ble_core/Release/libblelib.a(llc_ch_asses.o)
 .ARM.attributes
                0x00000a8f       0x33 C:/Users/h274519/ON_Semiconductor/ONSemiconductor/RSL10/3.0.534/lib/ble_core/Release/libblelib.a(llc_hci.o)
 .ARM.attributes
                0x00000ac2       0x33 C:/Users/h274519/ON_Semiconductor/ONSemiconductor/RSL10/3.0.534/lib/ble_core/Release/libblelib.a(l2cc_sig.o)
 .ARM.attributes
                0x00000af5       0x33 C:/Users/h274519/ON_Semiconductor/ONSemiconductor/RSL10/3.0.534/lib/ble_core/Release/libblelib.a(smpm_api.o)
 .ARM.attributes
                0x00000b28       0x33 C:/Users/h274519/ON_Semiconductor/ONSemiconductor/RSL10/3.0.534/lib/ble_core/Release/libblelib.a(smpc.o)
 .ARM.attributes
                0x00000b5b       0x33 C:/Users/h274519/ON_Semiconductor/ONSemiconductor/RSL10/3.0.534/lib/ble_core/Release/libblelib.a(smpc_api.o)
 .ARM.attributes
                0x00000b8e       0x33 C:/Users/h274519/ON_Semiconductor/ONSemiconductor/RSL10/3.0.534/lib/ble_core/Release/libblelib.a(smpc_crypto.o)
 .ARM.attributes
                0x00000bc1       0x33 C:/Users/h274519/ON_Semiconductor/ONSemiconductor/RSL10/3.0.534/lib/ble_core/Release/libblelib.a(smpc_util.o)
 .ARM.attributes
                0x00000bf4       0x33 C:/Users/h274519/ON_Semiconductor/ONSemiconductor/RSL10/3.0.534/lib/ble_core/Release/libblelib.a(gapm_hci.o)
 .ARM.attributes
                0x00000c27       0x33 C:/Users/h274519/ON_Semiconductor/ONSemiconductor/RSL10/3.0.534/lib/ble_core/Release/libblelib.a(gapc_hci.o)
 .ARM.attributes
                0x00000c5a       0x33 C:/Users/h274519/ON_Semiconductor/ONSemiconductor/RSL10/3.0.534/lib/ble_core/Release/libblelib.a(gapc_sig.o)
 .ARM.attributes
                0x00000c8d       0x33 C:/Users/h274519/ON_Semiconductor/ONSemiconductor/RSL10/3.0.534/lib/ble_core/Release/libkelib.a(ke.o)
 .ARM.attributes
                0x00000cc0       0x33 C:/Users/h274519/ON_Semiconductor/ONSemiconductor/RSL10/3.0.534/lib/ble_core/Release/libkelib.a(ke_event.o)
 .ARM.attributes
                0x00000cf3       0x33 C:/Users/h274519/ON_Semiconductor/ONSemiconductor/RSL10/3.0.534/lib/ble_core/Release/libkelib.a(ke_mem.o)
 .ARM.attributes
                0x00000d26       0x33 C:/Users/h274519/ON_Semiconductor/ONSemiconductor/RSL10/3.0.534/lib/ble_core/Release/libkelib.a(ke_msg.o)
 .ARM.attributes
                0x00000d59       0x33 C:/Users/h274519/ON_Semiconductor/ONSemiconductor/RSL10/3.0.534/lib/ble_core/Release/libkelib.a(ke_task.o)
 .ARM.attributes
                0x00000d8c       0x33 C:/Users/h274519/ON_Semiconductor/ONSemiconductor/RSL10/3.0.534/lib/ble_core/Release/libkelib.a(ke_timer.o)
 .ARM.attributes
                0x00000dbf       0x33 C:/Users/h274519/ON_Semiconductor/ONSemiconductor/RSL10/3.0.534/lib/ble_core/Release/libkelib.a(rst_grosstime.o)
 .ARM.attributes
                0x00000df2       0x33 C:/Users/h274519/ON_Semiconductor/ONSemiconductor/RSL10/3.0.534/lib/ble_core/Release/libkelib.a(rwip2.o)
 .ARM.attributes
                0x00000e25       0x33 C:/Users/h274519/ON_Semiconductor/ONSemiconductor/RSL10/3.0.534/lib/ble_core/Release/libkelib.a(co_list.o)
 .ARM.attributes
                0x00000e58       0x33 C:/Users/h274519/ON_Semiconductor/ONSemiconductor/RSL10/3.0.534/lib/ble_core/Release/libkelib.a(co_utils.o)
 .ARM.attributes
                0x00000e8b       0x33 C:/Users/h274519/ON_Semiconductor/ONSemiconductor/RSL10/3.0.534/lib/ble_core/Release/libkelib.a(ke_queue.o)
 .ARM.attributes
                0x00000ebe       0x33 C:/Users/h274519/ON_Semiconductor/ONSemiconductor/RSL10/3.0.534/lib/ble_profiles/Release/libbass.a(bass.o)
 .ARM.attributes
                0x00000ef1       0x33 C:/Users/h274519/ON_Semiconductor/ONSemiconductor/RSL10/3.0.534/lib/ble_profiles/Release/libbass.a(bass_task.o)
 .ARM.attributes
                0x00000f24       0x33 C:/Users/h274519/ON_Semiconductor/ONSemiconductor/RSL10/3.0.534/lib/Release/libsyslib.a(rsl10_protocol.o)
 .ARM.attributes
                0x00000f57       0x33 C:/Users/h274519/ON_Semiconductor/ONSemiconductor/RSL10/3.0.534/lib/Release/libsyslib.a(rsl10_sys_dma.o)
 .ARM.attributes
                0x00000f8a       0x33 C:/Users/h274519/ON_Semiconductor/ONSemiconductor/RSL10/3.0.534/lib/Release/libsyslib.a(rsl10_sys_rffe.o)
 .ARM.attributes
                0x00000fbd       0x33 C:/Users/h274519/ON_Semiconductor/ONSemiconductor/RSL10/3.0.534/lib/Release/libsyslib.a(rsl10_sys_uart.o)
 .ARM.attributes
                0x00000ff0       0x33 C:/Users/h274519/ON_Semiconductor/ONSemiconductor/RSL10/3.0.534/lib/Release/libsyslib.a(rsl10_sys_power.o)
 .ARM.attributes
                0x00001023       0x21 C:/Users/h274519/ON_Semiconductor/ONSemiconductor/RSL10/3.0.534/lib/Release/libcmsis.a(startup_rsl10.o)
 .ARM.attributes
                0x00001044       0x33 C:/Users/h274519/ON_Semiconductor/ONSemiconductor/RSL10/3.0.534/lib/Release/libcmsis.a(start.o)
 .ARM.attributes
                0x00001077       0x33 C:/Users/h274519/ON_Semiconductor/ONSemiconductor/RSL10/3.0.534/lib/Release/libcmsis.a(system_rsl10.o)
 .ARM.attributes
                0x000010aa       0x33 C:/Users/h274519/ON_Semiconductor/ONSemiconductor/RSL10/3.0.534/lib/Release/libcmsis.a(sbrk.o)
 .ARM.attributes
                0x000010dd       0x33 C:\Users\h274519\ON_Semiconductor\ONSemiconductor\RSL10\3.0.534\lib\ble_profiles\Release\libDISS.a(diss.o)
 .ARM.attributes
                0x00001110       0x33 C:\Users\h274519\ON_Semiconductor\ONSemiconductor\RSL10\3.0.534\lib\ble_profiles\Release\libDISS.a(diss_task.o)
 .ARM.attributes
                0x00001143       0x1d c:/program files (x86)/on semiconductor/ide/arm_tools/bin/../lib/gcc/arm-none-eabi/6.3.1/thumb/v7-m\libgcc.a(_arm_addsubdf3.o)
 .ARM.attributes
                0x00001160       0x1d c:/program files (x86)/on semiconductor/ide/arm_tools/bin/../lib/gcc/arm-none-eabi/6.3.1/thumb/v7-m\libgcc.a(_arm_muldivdf3.o)
 .ARM.attributes
                0x0000117d       0x1d c:/program files (x86)/on semiconductor/ide/arm_tools/bin/../lib/gcc/arm-none-eabi/6.3.1/thumb/v7-m\libgcc.a(_arm_fixdfsi.o)
 .ARM.attributes
                0x0000119a       0x1d c:/program files (x86)/on semiconductor/ide/arm_tools/bin/../lib/gcc/arm-none-eabi/6.3.1/thumb/v7-m\libgcc.a(_arm_fixunsdfsi.o)
 .ARM.attributes
                0x000011b7       0x1d c:/program files (x86)/on semiconductor/ide/arm_tools/bin/../lib/gcc/arm-none-eabi/6.3.1/thumb/v7-m\libgcc.a(_arm_truncdfsf2.o)
 .ARM.attributes
                0x000011d4       0x1d c:/program files (x86)/on semiconductor/ide/arm_tools/bin/../lib/gcc/arm-none-eabi/6.3.1/thumb/v7-m\libgcc.a(_arm_fixsfsi.o)
 .ARM.attributes
                0x000011f1       0x2d c:/program files (x86)/on semiconductor/ide/arm_tools/bin/../lib/gcc/arm-none-eabi/6.3.1/../../../../arm-none-eabi/lib/thumb/v7-m\libg_nano.a(lib_a-errno.o)
 .ARM.attributes
                0x0000121e       0x2d c:/program files (x86)/on semiconductor/ide/arm_tools/bin/../lib/gcc/arm-none-eabi/6.3.1/../../../../arm-none-eabi/lib/thumb/v7-m\libg_nano.a(lib_a-impure.o)
 .ARM.attributes
                0x0000124b       0x2d c:/program files (x86)/on semiconductor/ide/arm_tools/bin/../lib/gcc/arm-none-eabi/6.3.1/../../../../arm-none-eabi/lib/thumb/v7-m\libg_nano.a(lib_a-malloc.o)
 .ARM.attributes
                0x00001278       0x2d c:/program files (x86)/on semiconductor/ide/arm_tools/bin/../lib/gcc/arm-none-eabi/6.3.1/../../../../arm-none-eabi/lib/thumb/v7-m\libg_nano.a(lib_a-memcmp.o)
 .ARM.attributes
                0x000012a5       0x2d c:/program files (x86)/on semiconductor/ide/arm_tools/bin/../lib/gcc/arm-none-eabi/6.3.1/../../../../arm-none-eabi/lib/thumb/v7-m\libg_nano.a(lib_a-memcpy-stub.o)
 .ARM.attributes
                0x000012d2       0x2d c:/program files (x86)/on semiconductor/ide/arm_tools/bin/../lib/gcc/arm-none-eabi/6.3.1/../../../../arm-none-eabi/lib/thumb/v7-m\libg_nano.a(lib_a-memset.o)
 .ARM.attributes
                0x000012ff       0x2d c:/program files (x86)/on semiconductor/ide/arm_tools/bin/../lib/gcc/arm-none-eabi/6.3.1/../../../../arm-none-eabi/lib/thumb/v7-m\libg_nano.a(lib_a-nano-freer.o)
 .ARM.attributes
                0x0000132c       0x2d c:/program files (x86)/on semiconductor/ide/arm_tools/bin/../lib/gcc/arm-none-eabi/6.3.1/../../../../arm-none-eabi/lib/thumb/v7-m\libg_nano.a(lib_a-nano-mallocr.o)
 .ARM.attributes
                0x00001359       0x2d c:/program files (x86)/on semiconductor/ide/arm_tools/bin/../lib/gcc/arm-none-eabi/6.3.1/../../../../arm-none-eabi/lib/thumb/v7-m\libg_nano.a(lib_a-rand.o)
 .ARM.attributes
                0x00001386       0x2d c:/program files (x86)/on semiconductor/ide/arm_tools/bin/../lib/gcc/arm-none-eabi/6.3.1/../../../../arm-none-eabi/lib/thumb/v7-m\libg_nano.a(lib_a-sbrkr.o)
 .ARM.attributes
                0x000013b3       0x2d c:/program files (x86)/on semiconductor/ide/arm_tools/bin/../lib/gcc/arm-none-eabi/6.3.1/../../../../arm-none-eabi/lib/thumb/v7-m\libg_nano.a(lib_a-mlock.o)
 .ARM.attributes
                0x000013e0       0x2d c:/program files (x86)/on semiconductor/ide/arm_tools/bin/../lib/gcc/arm-none-eabi/6.3.1/../../../../arm-none-eabi/lib/thumb/v7-m\libg_nano.a(lib_a-reent.o)

.stack          0x00000000      0x400
 .stack         0x00000000      0x400 C:/Users/h274519/ON_Semiconductor/ONSemiconductor/RSL10/3.0.534/lib/Release/libcmsis.a(startup_rsl10.o)
                0x00000000                __stack_mem

.heap           0x00000000        0x0
 .heap          0x00000000        0x0 C:/Users/h274519/ON_Semiconductor/ONSemiconductor/RSL10/3.0.534/lib/Release/libcmsis.a(startup_rsl10.o)

.debug_frame    0x00000000     0x1398
 .debug_frame   0x00000000      0x12c ./code/app_init.o
 .debug_frame   0x0000012c       0xf8 ./code/app_process.o
 .debug_frame   0x00000224       0xec ./code/ble_bass.o
 .debug_frame   0x00000310      0x10c ./code/ble_custom.o
 .debug_frame   0x0000041c       0x78 ./code/ble_diss.o
 .debug_frame   0x00000494      0x2a0 ./code/ble_std.o
 .debug_frame   0x00000734      0x1f8 ./code/uart.o
 .debug_frame   0x0000092c      0x670 ./RTE/Device/stubprf.o
 .debug_frame   0x00000f9c       0x50 ./app.o
 .debug_frame   0x00000fec       0xac c:/program files (x86)/on semiconductor/ide/arm_tools/bin/../lib/gcc/arm-none-eabi/6.3.1/thumb/v7-m\libgcc.a(_arm_addsubdf3.o)
 .debug_frame   0x00001098       0x50 c:/program files (x86)/on semiconductor/ide/arm_tools/bin/../lib/gcc/arm-none-eabi/6.3.1/thumb/v7-m\libgcc.a(_arm_muldivdf3.o)
 .debug_frame   0x000010e8       0x24 c:/program files (x86)/on semiconductor/ide/arm_tools/bin/../lib/gcc/arm-none-eabi/6.3.1/thumb/v7-m\libgcc.a(_arm_fixdfsi.o)
 .debug_frame   0x0000110c       0x24 c:/program files (x86)/on semiconductor/ide/arm_tools/bin/../lib/gcc/arm-none-eabi/6.3.1/thumb/v7-m\libgcc.a(_arm_fixunsdfsi.o)
 .debug_frame   0x00001130       0x24 c:/program files (x86)/on semiconductor/ide/arm_tools/bin/../lib/gcc/arm-none-eabi/6.3.1/thumb/v7-m\libgcc.a(_arm_truncdfsf2.o)
 .debug_frame   0x00001154       0x24 c:/program files (x86)/on semiconductor/ide/arm_tools/bin/../lib/gcc/arm-none-eabi/6.3.1/thumb/v7-m\libgcc.a(_arm_fixsfsi.o)
 .debug_frame   0x00001178       0x20 c:/program files (x86)/on semiconductor/ide/arm_tools/bin/../lib/gcc/arm-none-eabi/6.3.1/../../../../arm-none-eabi/lib/thumb/v7-m\libg_nano.a(lib_a-errno.o)
 .debug_frame   0x00001198       0x30 c:/program files (x86)/on semiconductor/ide/arm_tools/bin/../lib/gcc/arm-none-eabi/6.3.1/../../../../arm-none-eabi/lib/thumb/v7-m\libg_nano.a(lib_a-malloc.o)
 .debug_frame   0x000011c8       0x28 c:/program files (x86)/on semiconductor/ide/arm_tools/bin/../lib/gcc/arm-none-eabi/6.3.1/../../../../arm-none-eabi/lib/thumb/v7-m\libg_nano.a(lib_a-memcmp.o)
 .debug_frame   0x000011f0       0x28 c:/program files (x86)/on semiconductor/ide/arm_tools/bin/../lib/gcc/arm-none-eabi/6.3.1/../../../../arm-none-eabi/lib/thumb/v7-m\libg_nano.a(lib_a-memcpy-stub.o)
 .debug_frame   0x00001218       0x20 c:/program files (x86)/on semiconductor/ide/arm_tools/bin/../lib/gcc/arm-none-eabi/6.3.1/../../../../arm-none-eabi/lib/thumb/v7-m\libg_nano.a(lib_a-memset.o)
 .debug_frame   0x00001238       0x38 c:/program files (x86)/on semiconductor/ide/arm_tools/bin/../lib/gcc/arm-none-eabi/6.3.1/../../../../arm-none-eabi/lib/thumb/v7-m\libg_nano.a(lib_a-nano-freer.o)
 .debug_frame   0x00001270       0x2c c:/program files (x86)/on semiconductor/ide/arm_tools/bin/../lib/gcc/arm-none-eabi/6.3.1/../../../../arm-none-eabi/lib/thumb/v7-m\libg_nano.a(lib_a-nano-mallocr.o)
 .debug_frame   0x0000129c       0x44 c:/program files (x86)/on semiconductor/ide/arm_tools/bin/../lib/gcc/arm-none-eabi/6.3.1/../../../../arm-none-eabi/lib/thumb/v7-m\libg_nano.a(lib_a-rand.o)
 .debug_frame   0x000012e0       0x2c c:/program files (x86)/on semiconductor/ide/arm_tools/bin/../lib/gcc/arm-none-eabi/6.3.1/../../../../arm-none-eabi/lib/thumb/v7-m\libg_nano.a(lib_a-sbrkr.o)
 .debug_frame   0x0000130c       0x30 c:/program files (x86)/on semiconductor/ide/arm_tools/bin/../lib/gcc/arm-none-eabi/6.3.1/../../../../arm-none-eabi/lib/thumb/v7-m\libg_nano.a(lib_a-mlock.o)
 .debug_frame   0x0000133c       0x5c c:/program files (x86)/on semiconductor/ide/arm_tools/bin/../lib/gcc/arm-none-eabi/6.3.1/../../../../arm-none-eabi/lib/thumb/v7-m\libg_nano.a(lib_a-reent.o)
